
main.elf:     file format elf32-littleriscv


Disassembly of section .text:

00000000 <_isr_handler>:
       0:	0080006f          	j	8 <_isr_routine>
       4:	1440006f          	j	148 <_start>

00000008 <_isr_routine>:
       8:	f8010113          	addi	sp,sp,-128
       c:	00112023          	sw	ra,0(sp)
      10:	00312423          	sw	gp,8(sp)
      14:	00412623          	sw	tp,12(sp)
      18:	00512823          	sw	t0,16(sp)
      1c:	00612a23          	sw	t1,20(sp)
      20:	00712c23          	sw	t2,24(sp)
      24:	00812e23          	sw	s0,28(sp)
      28:	02912023          	sw	s1,32(sp)
      2c:	02a12223          	sw	a0,36(sp)
      30:	02b12423          	sw	a1,40(sp)
      34:	02c12623          	sw	a2,44(sp)
      38:	02d12823          	sw	a3,48(sp)
      3c:	02e12a23          	sw	a4,52(sp)
      40:	02f12c23          	sw	a5,56(sp)
      44:	03012e23          	sw	a6,60(sp)
      48:	05112023          	sw	a7,64(sp)
      4c:	05212223          	sw	s2,68(sp)
      50:	05312423          	sw	s3,72(sp)
      54:	05412623          	sw	s4,76(sp)
      58:	05512823          	sw	s5,80(sp)
      5c:	05612a23          	sw	s6,84(sp)
      60:	05712c23          	sw	s7,88(sp)
      64:	05812e23          	sw	s8,92(sp)
      68:	07912023          	sw	s9,96(sp)
      6c:	07a12223          	sw	s10,100(sp)
      70:	07b12423          	sw	s11,104(sp)
      74:	07c12623          	sw	t3,108(sp)
      78:	07d12823          	sw	t4,112(sp)
      7c:	07e12a23          	sw	t5,116(sp)
      80:	07f12c23          	sw	t6,120(sp)
      84:	342022f3          	csrr	t0,mcause
      88:	80000337          	lui	t1,0x80000
      8c:	02536463          	bltu	t1,t0,b4 <external_irq>
      90:	00028833          	add	a6,t0,zero
      94:	00b00313          	li	t1,11
      98:	00628463          	beq	t0,t1,a0 <skip_init_args>
      9c:	34102573          	csrr	a0,mepc

000000a0 <skip_init_args>:
      a0:	259010ef          	jal	1af8 <handle_exception>
      a4:	341022f3          	csrr	t0,mepc
      a8:	00428293          	addi	t0,t0,4
      ac:	34129073          	csrw	mepc,t0
      b0:	0180006f          	j	c8 <restore>

000000b4 <external_irq>:
      b4:	800002b7          	lui	t0,0x80000
      b8:	fff28293          	addi	t0,t0,-1 # 7fffffff <_stack_end+0x7fefd763>
      bc:	34202373          	csrr	t1,mcause
      c0:	0062f533          	and	a0,t0,t1
      c4:	4a9010ef          	jal	1d6c <handle_interrupt>

000000c8 <restore>:
      c8:	00012083          	lw	ra,0(sp)
      cc:	00812183          	lw	gp,8(sp)
      d0:	00c12203          	lw	tp,12(sp)
      d4:	01012283          	lw	t0,16(sp)
      d8:	01412303          	lw	t1,20(sp)
      dc:	01812383          	lw	t2,24(sp)
      e0:	01c12403          	lw	s0,28(sp)
      e4:	02012483          	lw	s1,32(sp)
      e8:	02412503          	lw	a0,36(sp)
      ec:	02812583          	lw	a1,40(sp)
      f0:	02c12603          	lw	a2,44(sp)
      f4:	03012683          	lw	a3,48(sp)
      f8:	03412703          	lw	a4,52(sp)
      fc:	03812783          	lw	a5,56(sp)
     100:	03c12803          	lw	a6,60(sp)
     104:	04012883          	lw	a7,64(sp)
     108:	04412903          	lw	s2,68(sp)
     10c:	04812983          	lw	s3,72(sp)
     110:	04c12a03          	lw	s4,76(sp)
     114:	05012a83          	lw	s5,80(sp)
     118:	05412b03          	lw	s6,84(sp)
     11c:	05812b83          	lw	s7,88(sp)
     120:	05c12c03          	lw	s8,92(sp)
     124:	06012c83          	lw	s9,96(sp)
     128:	06412d03          	lw	s10,100(sp)
     12c:	06812d83          	lw	s11,104(sp)
     130:	06c12e03          	lw	t3,108(sp)
     134:	07012e83          	lw	t4,112(sp)
     138:	07412f03          	lw	t5,116(sp)
     13c:	07812f83          	lw	t6,120(sp)
     140:	08010113          	addi	sp,sp,128
     144:	30200073          	mret

00000148 <_start>:
     148:	30401073          	csrw	mie,zero
     14c:	00102117          	auipc	sp,0x102
     150:	75010113          	addi	sp,sp,1872 # 10289c <_stack_end>
     154:	00002197          	auipc	gp,0x2
     158:	55518193          	addi	gp,gp,1365 # 26a9 <__global_pointer>
     15c:	00002517          	auipc	a0,0x2
     160:	c9850513          	addi	a0,a0,-872 # 1df4 <welcome_msg>
     164:	00400893          	li	a7,4
     168:	00000073          	ecall
     16c:	405010ef          	jal	1d70 <main>

00000170 <loop>:
     170:	0000006f          	j	170 <loop>

00000174 <enable_interrupt>:
     174:	3001e073          	csrsi	mstatus,3
     178:	30486073          	csrsi	mie,16
     17c:	00008067          	ret

00000180 <display_string>:
     180:	00400893          	li	a7,4
     184:	00000073          	ecall
     188:	00a00513          	li	a0,10
     18c:	00b00893          	li	a7,11
     190:	00000073          	ecall
     194:	00008067          	ret

00000198 <timetemplate>:
     198:	00002517          	auipc	a0,0x2
     19c:	cf450513          	addi	a0,a0,-780 # 1e8c <timstr>
     1a0:	fe1ff0ef          	jal	180 <display_string>
     1a4:	00001537          	lui	a0,0x1
     1a8:	fa050513          	addi	a0,a0,-96 # fa0 <draw_score_hud+0x58>
     1ac:	12c000ef          	jal	2d8 <delay>
     1b0:	00002517          	auipc	a0,0x2
     1b4:	cd850513          	addi	a0,a0,-808 # 1e88 <mytime>
     1b8:	020000ef          	jal	1d8 <tick>
     1bc:	00002517          	auipc	a0,0x2
     1c0:	cd050513          	addi	a0,a0,-816 # 1e8c <timstr>
     1c4:	00002297          	auipc	t0,0x2
     1c8:	cc428293          	addi	t0,t0,-828 # 1e88 <mytime>
     1cc:	0002a583          	lw	a1,0(t0)
     1d0:	080000ef          	jal	250 <time2string>
     1d4:	fc5ff06f          	j	198 <timetemplate>

000001d8 <tick>:
     1d8:	00052283          	lw	t0,0(a0)
     1dc:	00128293          	addi	t0,t0,1
     1e0:	00f2f313          	andi	t1,t0,15
     1e4:	00a33393          	sltiu	t2,t1,10
     1e8:	06039063          	bnez	t2,248 <tiend>
     1ec:	00628293          	addi	t0,t0,6
     1f0:	0f02f313          	andi	t1,t0,240
     1f4:	06033393          	sltiu	t2,t1,96
     1f8:	04039863          	bnez	t2,248 <tiend>
     1fc:	0a028293          	addi	t0,t0,160
     200:	00f00e13          	li	t3,15
     204:	008e1e13          	slli	t3,t3,0x8
     208:	01c2f333          	and	t1,t0,t3
     20c:	00a00e13          	li	t3,10
     210:	008e1e13          	slli	t3,t3,0x8
     214:	01c323b3          	slt	t2,t1,t3
     218:	02039863          	bnez	t2,248 <tiend>
     21c:	60028293          	addi	t0,t0,1536
     220:	00f00e13          	li	t3,15
     224:	00ce1e13          	slli	t3,t3,0xc
     228:	01c2f333          	and	t1,t0,t3
     22c:	00600e13          	li	t3,6
     230:	00ce1e13          	slli	t3,t3,0xc
     234:	01c323b3          	slt	t2,t1,t3
     238:	00039863          	bnez	t2,248 <tiend>
     23c:	00a00e13          	li	t3,10
     240:	00ce1e13          	slli	t3,t3,0xc
     244:	01c282b3          	add	t0,t0,t3

00000248 <tiend>:
     248:	00552023          	sw	t0,0(a0)
     24c:	00008067          	ret

00000250 <time2string>:
     250:	ff410113          	addi	sp,sp,-12
     254:	00112423          	sw	ra,8(sp)
     258:	00812223          	sw	s0,4(sp)
     25c:	00912023          	sw	s1,0(sp)
     260:	00050413          	mv	s0,a0
     264:	00058493          	mv	s1,a1
     268:	00c4d513          	srli	a0,s1,0xc
     26c:	050000ef          	jal	2bc <hexasc>
     270:	00a40023          	sb	a0,0(s0)
     274:	0084d513          	srli	a0,s1,0x8
     278:	044000ef          	jal	2bc <hexasc>
     27c:	00a400a3          	sb	a0,1(s0)
     280:	03a00293          	li	t0,58
     284:	00540123          	sb	t0,2(s0)
     288:	0044d513          	srli	a0,s1,0x4
     28c:	030000ef          	jal	2bc <hexasc>
     290:	00a401a3          	sb	a0,3(s0)
     294:	00048513          	mv	a0,s1
     298:	024000ef          	jal	2bc <hexasc>
     29c:	00a40223          	sb	a0,4(s0)
     2a0:	00000293          	li	t0,0
     2a4:	005402a3          	sb	t0,5(s0)
     2a8:	00012483          	lw	s1,0(sp)
     2ac:	00412403          	lw	s0,4(sp)
     2b0:	00812083          	lw	ra,8(sp)
     2b4:	00c10113          	addi	sp,sp,12
     2b8:	00008067          	ret

000002bc <hexasc>:
     2bc:	00f57513          	andi	a0,a0,15
     2c0:	00a00293          	li	t0,10
     2c4:	00555663          	bge	a0,t0,2d0 <letters>
     2c8:	03050513          	addi	a0,a0,48
     2cc:	00008067          	ret

000002d0 <letters>:
     2d0:	03750513          	addi	a0,a0,55
     2d4:	00008067          	ret

000002d8 <delay>:
     2d8:	02a05063          	blez	a0,2f8 <exit_delay>

000002dc <while_loop>:
     2dc:	00001337          	lui	t1,0x1
     2e0:	bb830313          	addi	t1,t1,-1096 # bb8 <vga_draw_string+0x24c>
     2e4:	00000293          	li	t0,0

000002e8 <for_loop>:
     2e8:	00128293          	addi	t0,t0,1
     2ec:	fe62cee3          	blt	t0,t1,2e8 <for_loop>
     2f0:	fff50513          	addi	a0,a0,-1
     2f4:	fea044e3          	bgtz	a0,2dc <while_loop>

000002f8 <exit_delay>:
     2f8:	00008067          	ret

000002fc <spi_delay_nanos>:
     2fc:	00000013          	nop
     300:	00000013          	nop
     304:	00000013          	nop
     308:	00000013          	nop
     30c:	00000013          	nop
     310:	00008067          	ret

00000314 <timer_init>:
     314:	01c9c7b7          	lui	a5,0x1c9c
     318:	38078793          	addi	a5,a5,896 # 1c9c380 <_stack_end+0x1b99ae4>
     31c:	02a7c7b3          	div	a5,a5,a0
     320:	04000737          	lui	a4,0x4000
     324:	00800693          	li	a3,8
     328:	02d72223          	sw	a3,36(a4) # 4000024 <_stack_end+0x3efd788>
     32c:	040005b7          	lui	a1,0x4000
     330:	0205a023          	sw	zero,32(a1) # 4000020 <_stack_end+0x3efd784>
     334:	04000637          	lui	a2,0x4000
     338:	040006b7          	lui	a3,0x4000
     33c:	01079593          	slli	a1,a5,0x10
     340:	0105d593          	srli	a1,a1,0x10
     344:	02b62423          	sw	a1,40(a2) # 4000028 <_stack_end+0x3efd78c>
     348:	0107d793          	srli	a5,a5,0x10
     34c:	02f6a623          	sw	a5,44(a3) # 400002c <_stack_end+0x3efd790>
     350:	00600793          	li	a5,6
     354:	02f72223          	sw	a5,36(a4)
     358:	00008067          	ret

0000035c <timer_check_tick>:
     35c:	040007b7          	lui	a5,0x4000
     360:	0207a703          	lw	a4,32(a5) # 4000020 <_stack_end+0x3efd784>
     364:	00000513          	li	a0,0
     368:	02078793          	addi	a5,a5,32
     36c:	00177713          	andi	a4,a4,1
     370:	00071463          	bnez	a4,378 <timer_check_tick+0x1c>
     374:	00008067          	ret
     378:	0007a023          	sw	zero,0(a5)
     37c:	00100513          	li	a0,1
     380:	00008067          	ret

00000384 <get_char_idx>:
     384:	fd050793          	addi	a5,a0,-48
     388:	0ff7f693          	zext.b	a3,a5
     38c:	00900713          	li	a4,9
     390:	02d77863          	bgeu	a4,a3,3c0 <get_char_idx+0x3c>
     394:	fd250513          	addi	a0,a0,-46
     398:	0ff57793          	zext.b	a5,a0
     39c:	02e00713          	li	a4,46
     3a0:	01e00513          	li	a0,30
     3a4:	00f77463          	bgeu	a4,a5,3ac <get_char_idx+0x28>
     3a8:	00008067          	ret
     3ac:	00002737          	lui	a4,0x2
     3b0:	6ec70713          	addi	a4,a4,1772 # 26ec <CSWTCH.6>
     3b4:	00f707b3          	add	a5,a4,a5
     3b8:	00078503          	lb	a0,0(a5)
     3bc:	00008067          	ret
     3c0:	00078513          	mv	a0,a5
     3c4:	00008067          	ret

000003c8 <abs>:
     3c8:	41f55793          	srai	a5,a0,0x1f
     3cc:	00a7c533          	xor	a0,a5,a0
     3d0:	40f50533          	sub	a0,a0,a5
     3d4:	00008067          	ret

000003d8 <vga_draw_pixel>:
     3d8:	13f00793          	li	a5,319
     3dc:	02a7e463          	bltu	a5,a0,404 <vga_draw_pixel+0x2c>
     3e0:	0ef00793          	li	a5,239
     3e4:	02b7e063          	bltu	a5,a1,404 <vga_draw_pixel+0x2c>
     3e8:	00259793          	slli	a5,a1,0x2
     3ec:	00b787b3          	add	a5,a5,a1
     3f0:	00679793          	slli	a5,a5,0x6
     3f4:	00a787b3          	add	a5,a5,a0
     3f8:	08000737          	lui	a4,0x8000
     3fc:	00f707b3          	add	a5,a4,a5
     400:	00c78023          	sb	a2,0(a5)
     404:	00008067          	ret

00000408 <vga_clear_screen>:
     408:	08013737          	lui	a4,0x8013
     40c:	080007b7          	lui	a5,0x8000
     410:	c0070713          	addi	a4,a4,-1024 # 8012c00 <_stack_end+0x7f10364>
     414:	00a78023          	sb	a0,0(a5) # 8000000 <_stack_end+0x7efd764>
     418:	00178793          	addi	a5,a5,1
     41c:	fee79ce3          	bne	a5,a4,414 <vga_clear_screen+0xc>
     420:	00008067          	ret

00000424 <vga_draw_line>:
     424:	0ad58a63          	beq	a1,a3,4d8 <vga_draw_line+0xb4>
     428:	10c50c63          	beq	a0,a2,540 <vga_draw_line+0x11c>
     42c:	40a60333          	sub	t1,a2,a0
     430:	41f35793          	srai	a5,t1,0x1f
     434:	ff010113          	addi	sp,sp,-16
     438:	0067c333          	xor	t1,a5,t1
     43c:	00812623          	sw	s0,12(sp)
     440:	40f30333          	sub	t1,t1,a5
     444:	fff00393          	li	t2,-1
     448:	00c55463          	bge	a0,a2,450 <vga_draw_line+0x2c>
     44c:	00100393          	li	t2,1
     450:	40b68f33          	sub	t5,a3,a1
     454:	41ff5793          	srai	a5,t5,0x1f
     458:	01e7cf33          	xor	t5,a5,t5
     45c:	40ff0f33          	sub	t5,t5,a5
     460:	41e00eb3          	neg	t4,t5
     464:	fff00413          	li	s0,-1
     468:	06d5c463          	blt	a1,a3,4d0 <vga_draw_line+0xac>
     46c:	41e30833          	sub	a6,t1,t5
     470:	13f00e13          	li	t3,319
     474:	0ef00293          	li	t0,239
     478:	08000fb7          	lui	t6,0x8000
     47c:	00181893          	slli	a7,a6,0x1
     480:	02ae6063          	bltu	t3,a0,4a0 <vga_draw_line+0x7c>
     484:	00259793          	slli	a5,a1,0x2
     488:	00b787b3          	add	a5,a5,a1
     48c:	00679793          	slli	a5,a5,0x6
     490:	00a787b3          	add	a5,a5,a0
     494:	00ff87b3          	add	a5,t6,a5
     498:	00b2e463          	bltu	t0,a1,4a0 <vga_draw_line+0x7c>
     49c:	00e78023          	sb	a4,0(a5)
     4a0:	02c50063          	beq	a0,a2,4c0 <vga_draw_line+0x9c>
     4a4:	01d8c863          	blt	a7,t4,4b4 <vga_draw_line+0x90>
     4a8:	41e80833          	sub	a6,a6,t5
     4ac:	00750533          	add	a0,a0,t2
     4b0:	fd1346e3          	blt	t1,a7,47c <vga_draw_line+0x58>
     4b4:	00680833          	add	a6,a6,t1
     4b8:	008585b3          	add	a1,a1,s0
     4bc:	fc1ff06f          	j	47c <vga_draw_line+0x58>
     4c0:	fed592e3          	bne	a1,a3,4a4 <vga_draw_line+0x80>
     4c4:	00c12403          	lw	s0,12(sp)
     4c8:	01010113          	addi	sp,sp,16
     4cc:	00008067          	ret
     4d0:	00100413          	li	s0,1
     4d4:	f99ff06f          	j	46c <vga_draw_line+0x48>
     4d8:	00050793          	mv	a5,a0
     4dc:	04a64c63          	blt	a2,a0,534 <vga_draw_line+0x110>
     4e0:	04c54463          	blt	a0,a2,528 <vga_draw_line+0x104>
     4e4:	04f54063          	blt	a0,a5,524 <vga_draw_line+0x100>
     4e8:	0ef00693          	li	a3,239
     4ec:	02b6ec63          	bltu	a3,a1,524 <vga_draw_line+0x100>
     4f0:	00259613          	slli	a2,a1,0x2
     4f4:	00b60633          	add	a2,a2,a1
     4f8:	00661613          	slli	a2,a2,0x6
     4fc:	080005b7          	lui	a1,0x8000
     500:	00150693          	addi	a3,a0,1
     504:	00b60633          	add	a2,a2,a1
     508:	13f00513          	li	a0,319
     50c:	00f605b3          	add	a1,a2,a5
     510:	00f56463          	bltu	a0,a5,518 <vga_draw_line+0xf4>
     514:	00e58023          	sb	a4,0(a1) # 8000000 <_stack_end+0x7efd764>
     518:	00178793          	addi	a5,a5,1
     51c:	fed798e3          	bne	a5,a3,50c <vga_draw_line+0xe8>
     520:	00008067          	ret
     524:	00008067          	ret
     528:	00060513          	mv	a0,a2
     52c:	faf55ee3          	bge	a0,a5,4e8 <vga_draw_line+0xc4>
     530:	00008067          	ret
     534:	00060793          	mv	a5,a2
     538:	fac556e3          	bge	a0,a2,4e4 <vga_draw_line+0xc0>
     53c:	fedff06f          	j	528 <vga_draw_line+0x104>
     540:	00058793          	mv	a5,a1
     544:	00b6d463          	bge	a3,a1,54c <vga_draw_line+0x128>
     548:	00068793          	mv	a5,a3
     54c:	00d5d463          	bge	a1,a3,554 <vga_draw_line+0x130>
     550:	00068593          	mv	a1,a3
     554:	fcf5c8e3          	blt	a1,a5,524 <vga_draw_line+0x100>
     558:	13f00693          	li	a3,319
     55c:	fca6e4e3          	bltu	a3,a0,524 <vga_draw_line+0x100>
     560:	00279613          	slli	a2,a5,0x2
     564:	00f60633          	add	a2,a2,a5
     568:	00661613          	slli	a2,a2,0x6
     56c:	00a60633          	add	a2,a2,a0
     570:	080006b7          	lui	a3,0x8000
     574:	00c686b3          	add	a3,a3,a2
     578:	00158613          	addi	a2,a1,1
     57c:	0ef00593          	li	a1,239
     580:	00f5e463          	bltu	a1,a5,588 <vga_draw_line+0x164>
     584:	00e68023          	sb	a4,0(a3) # 8000000 <_stack_end+0x7efd764>
     588:	00178793          	addi	a5,a5,1
     58c:	14068693          	addi	a3,a3,320
     590:	fec798e3          	bne	a5,a2,580 <vga_draw_line+0x15c>
     594:	00008067          	ret

00000598 <vga_draw_char>:
     598:	fd060793          	addi	a5,a2,-48
     59c:	0ff7f813          	zext.b	a6,a5
     5a0:	00900713          	li	a4,9
     5a4:	33077863          	bgeu	a4,a6,8d4 <__heap_size+0xd4>
     5a8:	fd260613          	addi	a2,a2,-46
     5ac:	0ff67613          	zext.b	a2,a2
     5b0:	02e00793          	li	a5,46
     5b4:	0ec7e663          	bltu	a5,a2,6a0 <vga_draw_char+0x108>
     5b8:	000027b7          	lui	a5,0x2
     5bc:	6ec78793          	addi	a5,a5,1772 # 26ec <CSWTCH.6>
     5c0:	00c78633          	add	a2,a5,a2
     5c4:	00060603          	lb	a2,0(a2)
     5c8:	00261713          	slli	a4,a2,0x2
     5cc:	00c70733          	add	a4,a4,a2
     5d0:	03078793          	addi	a5,a5,48
     5d4:	00e788b3          	add	a7,a5,a4
     5d8:	0e05c063          	bltz	a1,6b8 <vga_draw_char+0x120>
     5dc:	00259713          	slli	a4,a1,0x2
     5e0:	00b70733          	add	a4,a4,a1
     5e4:	00671713          	slli	a4,a4,0x6
     5e8:	08000637          	lui	a2,0x8000
     5ec:	ff010113          	addi	sp,sp,-16
     5f0:	00a70733          	add	a4,a4,a0
     5f4:	78060613          	addi	a2,a2,1920 # 8000780 <_stack_end+0x7efdee4>
     5f8:	00812623          	sw	s0,12(sp)
     5fc:	00912423          	sw	s1,8(sp)
     600:	00c70e33          	add	t3,a4,a2
     604:	00550e93          	addi	t4,a0,5
     608:	00050313          	mv	t1,a0
     60c:	00658413          	addi	s0,a1,6
     610:	0ea00393          	li	t2,234
     614:	0eb00293          	li	t0,235
     618:	13f00f13          	li	t5,319
     61c:	0ec00f93          	li	t6,236
     620:	0ed00493          	li	s1,237
     624:	40a307b3          	sub	a5,t1,a0
     628:	00f887b3          	add	a5,a7,a5
     62c:	0007c783          	lbu	a5,0(a5)
     630:	0017f713          	andi	a4,a5,1
     634:	0027f613          	andi	a2,a5,2
     638:	0047f813          	andi	a6,a5,4
     63c:	14070263          	beqz	a4,780 <vga_draw_char+0x1e8>
     640:	1e6f6463          	bltu	t5,t1,828 <__heap_size+0x28>
     644:	0ef00713          	li	a4,239
     648:	2cb75463          	bge	a4,a1,910 <__heap_size+0x110>
     64c:	2c060c63          	beqz	a2,924 <__heap_size+0x124>
     650:	2e080c63          	beqz	a6,948 <__heap_size+0x148>
     654:	0ed00713          	li	a4,237
     658:	14b74663          	blt	a4,a1,7a4 <vga_draw_char+0x20c>
     65c:	b0de0023          	sb	a3,-1280(t3)
     660:	0087f613          	andi	a2,a5,8
     664:	14060a63          	beqz	a2,7b8 <vga_draw_char+0x220>
     668:	13f00713          	li	a4,319
     66c:	18676263          	bltu	a4,t1,7f0 <vga_draw_char+0x258>
     670:	14bfd263          	bge	t6,a1,7b4 <vga_draw_char+0x21c>
     674:	0107f713          	andi	a4,a5,16
     678:	28071463          	bnez	a4,900 <__heap_size+0x100>
     67c:	0207f613          	andi	a2,a5,32
     680:	14060863          	beqz	a2,7d0 <vga_draw_char+0x238>
     684:	13f00713          	li	a4,319
     688:	16676463          	bltu	a4,t1,7f0 <vga_draw_char+0x258>
     68c:	26b3d663          	bge	t2,a1,8f8 <__heap_size+0xf8>
     690:	0407f793          	andi	a5,a5,64
     694:	14078e63          	beqz	a5,7f0 <vga_draw_char+0x258>
     698:	00658793          	addi	a5,a1,6
     69c:	1480006f          	j	7e4 <vga_draw_char+0x24c>
     6a0:	000027b7          	lui	a5,0x2
     6a4:	6ec78793          	addi	a5,a5,1772 # 26ec <CSWTCH.6>
     6a8:	09600713          	li	a4,150
     6ac:	03078793          	addi	a5,a5,48
     6b0:	00e788b3          	add	a7,a5,a4
     6b4:	f205d4e3          	bgez	a1,5dc <vga_draw_char+0x44>
     6b8:	00259713          	slli	a4,a1,0x2
     6bc:	00b70733          	add	a4,a4,a1
     6c0:	00671713          	slli	a4,a4,0x6
     6c4:	080007b7          	lui	a5,0x8000
     6c8:	00a70733          	add	a4,a4,a0
     6cc:	78078793          	addi	a5,a5,1920 # 8000780 <_stack_end+0x7efdee4>
     6d0:	00f70e33          	add	t3,a4,a5
     6d4:	00550f13          	addi	t5,a0,5
     6d8:	00050313          	mv	t1,a0
     6dc:	13f00e93          	li	t4,319
     6e0:	40a307b3          	sub	a5,t1,a0
     6e4:	00f887b3          	add	a5,a7,a5
     6e8:	0007c783          	lbu	a5,0(a5)
     6ec:	0017f713          	andi	a4,a5,1
     6f0:	0027f813          	andi	a6,a5,2
     6f4:	0047f613          	andi	a2,a5,4
     6f8:	18071e63          	bnez	a4,894 <__heap_size+0x94>
     6fc:	14080663          	beqz	a6,848 <__heap_size+0x48>
     700:	246eea63          	bltu	t4,t1,954 <__heap_size+0x154>
     704:	00158713          	addi	a4,a1,1
     708:	12070e63          	beqz	a4,844 <__heap_size+0x44>
     70c:	14061263          	bnez	a2,850 <__heap_size+0x50>
     710:	0087f713          	andi	a4,a5,8
     714:	00070a63          	beqz	a4,728 <vga_draw_char+0x190>
     718:	046eec63          	bltu	t4,t1,770 <vga_draw_char+0x1d8>
     71c:	00358713          	addi	a4,a1,3
     720:	14074463          	bltz	a4,868 <__heap_size+0x68>
     724:	c4de0023          	sb	a3,-960(t3)
     728:	0107f613          	andi	a2,a5,16
     72c:	00060a63          	beqz	a2,740 <vga_draw_char+0x1a8>
     730:	046ee063          	bltu	t4,t1,770 <vga_draw_char+0x1d8>
     734:	00458713          	addi	a4,a1,4
     738:	14074063          	bltz	a4,878 <__heap_size+0x78>
     73c:	d8de0023          	sb	a3,-640(t3)
     740:	0207f613          	andi	a2,a5,32
     744:	00060a63          	beqz	a2,758 <vga_draw_char+0x1c0>
     748:	026ee463          	bltu	t4,t1,770 <vga_draw_char+0x1d8>
     74c:	00558713          	addi	a4,a1,5
     750:	12074c63          	bltz	a4,888 <__heap_size+0x88>
     754:	ecde0023          	sb	a3,-320(t3)
     758:	0407f793          	andi	a5,a5,64
     75c:	00078a63          	beqz	a5,770 <vga_draw_char+0x1d8>
     760:	006ee863          	bltu	t4,t1,770 <vga_draw_char+0x1d8>
     764:	00658793          	addi	a5,a1,6
     768:	0007c463          	bltz	a5,770 <vga_draw_char+0x1d8>
     76c:	00de0023          	sb	a3,0(t3)
     770:	00130313          	addi	t1,t1,1
     774:	001e0e13          	addi	t3,t3,1
     778:	f7e314e3          	bne	t1,t5,6e0 <vga_draw_char+0x148>
     77c:	00008067          	ret
     780:	00060a63          	beqz	a2,794 <vga_draw_char+0x1fc>
     784:	0a6f6263          	bltu	t5,t1,828 <__heap_size+0x28>
     788:	0ee00713          	li	a4,238
     78c:	18b74863          	blt	a4,a1,91c <__heap_size+0x11c>
     790:	9cde0023          	sb	a3,-1600(t3)
     794:	ec0806e3          	beqz	a6,660 <vga_draw_char+0xc8>
     798:	13f00713          	li	a4,319
     79c:	06676863          	bltu	a4,t1,80c <__heap_size+0xc>
     7a0:	eab4dee3          	bge	s1,a1,65c <vga_draw_char+0xc4>
     7a4:	0087f713          	andi	a4,a5,8
     7a8:	00070863          	beqz	a4,7b8 <vga_draw_char+0x220>
     7ac:	0ec00713          	li	a4,236
     7b0:	ecb742e3          	blt	a4,a1,674 <vga_draw_char+0xdc>
     7b4:	c4de0023          	sb	a3,-960(t3)
     7b8:	0107f613          	andi	a2,a5,16
     7bc:	ec0600e3          	beqz	a2,67c <vga_draw_char+0xe4>
     7c0:	026f6863          	bltu	t5,t1,7f0 <vga_draw_char+0x258>
     7c4:	14b2d263          	bge	t0,a1,908 <__heap_size+0x108>
     7c8:	0207f713          	andi	a4,a5,32
     7cc:	12071263          	bnez	a4,8f0 <__heap_size+0xf0>
     7d0:	0407f613          	andi	a2,a5,64
     7d4:	00060e63          	beqz	a2,7f0 <vga_draw_char+0x258>
     7d8:	13f00793          	li	a5,319
     7dc:	0067ea63          	bltu	a5,t1,7f0 <vga_draw_char+0x258>
     7e0:	00040793          	mv	a5,s0
     7e4:	0ef00713          	li	a4,239
     7e8:	00f74463          	blt	a4,a5,7f0 <vga_draw_char+0x258>
     7ec:	00de0023          	sb	a3,0(t3)
     7f0:	00130313          	addi	t1,t1,1
     7f4:	001e0e13          	addi	t3,t3,1
     7f8:	e3d316e3          	bne	t1,t4,624 <vga_draw_char+0x8c>
     7fc:	00c12403          	lw	s0,12(sp)
     800:	00812483          	lw	s1,8(sp)
     804:	01010113          	addi	sp,sp,16
     808:	00008067          	ret
     80c:	0087f713          	andi	a4,a5,8
     810:	fe0710e3          	bnez	a4,7f0 <vga_draw_char+0x258>
     814:	0107f713          	andi	a4,a5,16
     818:	fc071ce3          	bnez	a4,7f0 <vga_draw_char+0x258>
     81c:	0207f713          	andi	a4,a5,32
     820:	fa0708e3          	beqz	a4,7d0 <vga_draw_char+0x238>
     824:	fcdff06f          	j	7f0 <vga_draw_char+0x258>
     828:	fe0812e3          	bnez	a6,80c <__heap_size+0xc>
     82c:	0087f713          	andi	a4,a5,8
     830:	f80704e3          	beqz	a4,7b8 <vga_draw_char+0x220>
     834:	00130313          	addi	t1,t1,1
     838:	001e0e13          	addi	t3,t3,1
     83c:	dfd314e3          	bne	t1,t4,624 <vga_draw_char+0x8c>
     840:	fbdff06f          	j	7fc <vga_draw_char+0x264>
     844:	9cde0023          	sb	a3,-1600(t3)
     848:	ec0604e3          	beqz	a2,710 <vga_draw_char+0x178>
     84c:	066ee463          	bltu	t4,t1,8b4 <__heap_size+0xb4>
     850:	00258713          	addi	a4,a1,2
     854:	08075a63          	bgez	a4,8e8 <__heap_size+0xe8>
     858:	0087f713          	andi	a4,a5,8
     85c:	ec0706e3          	beqz	a4,728 <vga_draw_char+0x190>
     860:	00358713          	addi	a4,a1,3
     864:	ec0750e3          	bgez	a4,724 <vga_draw_char+0x18c>
     868:	0107f713          	andi	a4,a5,16
     86c:	ec070ae3          	beqz	a4,740 <vga_draw_char+0x1a8>
     870:	00458713          	addi	a4,a1,4
     874:	ec0754e3          	bgez	a4,73c <vga_draw_char+0x1a4>
     878:	0207f713          	andi	a4,a5,32
     87c:	ec070ee3          	beqz	a4,758 <vga_draw_char+0x1c0>
     880:	00558713          	addi	a4,a1,5
     884:	ec0758e3          	bgez	a4,754 <vga_draw_char+0x1bc>
     888:	0407f793          	andi	a5,a5,64
     88c:	ec079ce3          	bnez	a5,764 <vga_draw_char+0x1cc>
     890:	ee1ff06f          	j	770 <vga_draw_char+0x1d8>
     894:	006eec63          	bltu	t4,t1,8ac <__heap_size+0xac>
     898:	e60816e3          	bnez	a6,704 <vga_draw_char+0x16c>
     89c:	fa061ae3          	bnez	a2,850 <__heap_size+0x50>
     8a0:	0087f713          	andi	a4,a5,8
     8a4:	fc0702e3          	beqz	a4,868 <__heap_size+0x68>
     8a8:	e75ff06f          	j	71c <vga_draw_char+0x184>
     8ac:	00080e63          	beqz	a6,8c8 <__heap_size+0xc8>
     8b0:	00060c63          	beqz	a2,8c8 <__heap_size+0xc8>
     8b4:	0087f713          	andi	a4,a5,8
     8b8:	ea071ce3          	bnez	a4,770 <vga_draw_char+0x1d8>
     8bc:	0207f713          	andi	a4,a5,32
     8c0:	e8070ce3          	beqz	a4,758 <vga_draw_char+0x1c0>
     8c4:	eadff06f          	j	770 <vga_draw_char+0x1d8>
     8c8:	0087f713          	andi	a4,a5,8
     8cc:	e4070ee3          	beqz	a4,728 <vga_draw_char+0x190>
     8d0:	ea1ff06f          	j	770 <vga_draw_char+0x1d8>
     8d4:	00279713          	slli	a4,a5,0x2
     8d8:	00f70733          	add	a4,a4,a5
     8dc:	000027b7          	lui	a5,0x2
     8e0:	6ec78793          	addi	a5,a5,1772 # 26ec <CSWTCH.6>
     8e4:	cedff06f          	j	5d0 <vga_draw_char+0x38>
     8e8:	b0de0023          	sb	a3,-1280(t3)
     8ec:	e25ff06f          	j	710 <vga_draw_char+0x178>
     8f0:	0ea00713          	li	a4,234
     8f4:	d8b74ee3          	blt	a4,a1,690 <vga_draw_char+0xf8>
     8f8:	ecde0023          	sb	a3,-320(t3)
     8fc:	ed5ff06f          	j	7d0 <vga_draw_char+0x238>
     900:	0eb00713          	li	a4,235
     904:	ecb742e3          	blt	a4,a1,7c8 <vga_draw_char+0x230>
     908:	d8de0023          	sb	a3,-640(t3)
     90c:	d71ff06f          	j	67c <vga_draw_char+0xe4>
     910:	88de0023          	sb	a3,-1920(t3)
     914:	02060863          	beqz	a2,944 <__heap_size+0x144>
     918:	e6e59ce3          	bne	a1,a4,790 <vga_draw_char+0x1f8>
     91c:	d40802e3          	beqz	a6,660 <vga_draw_char+0xc8>
     920:	d35ff06f          	j	654 <vga_draw_char+0xbc>
     924:	0087f713          	andi	a4,a5,8
     928:	02080263          	beqz	a6,94c <__heap_size+0x14c>
     92c:	e80710e3          	bnez	a4,7ac <vga_draw_char+0x214>
     930:	0107f713          	andi	a4,a5,16
     934:	e80718e3          	bnez	a4,7c4 <vga_draw_char+0x22c>
     938:	0207f713          	andi	a4,a5,32
     93c:	e8070ae3          	beqz	a4,7d0 <vga_draw_char+0x238>
     940:	d4dff06f          	j	68c <vga_draw_char+0xf4>
     944:	e4081ee3          	bnez	a6,7a0 <vga_draw_char+0x208>
     948:	0087f713          	andi	a4,a5,8
     94c:	e60706e3          	beqz	a4,7b8 <vga_draw_char+0x220>
     950:	d21ff06f          	j	670 <vga_draw_char+0xd8>
     954:	0087f713          	andi	a4,a5,8
     958:	f6061ae3          	bnez	a2,8cc <__heap_size+0xcc>
     95c:	e0071ae3          	bnez	a4,770 <vga_draw_char+0x1d8>
     960:	0107f713          	andi	a4,a5,16
     964:	e00716e3          	bnez	a4,770 <vga_draw_char+0x1d8>
     968:	dd9ff06f          	j	740 <vga_draw_char+0x1a8>

0000096c <vga_draw_string>:
     96c:	00064783          	lbu	a5,0(a2)
     970:	3e078a63          	beqz	a5,d64 <vga_draw_string+0x3f8>
     974:	fd010113          	addi	sp,sp,-48
     978:	00002e37          	lui	t3,0x2
     97c:	02812623          	sw	s0,44(sp)
     980:	02912423          	sw	s1,40(sp)
     984:	03212223          	sw	s2,36(sp)
     988:	03312023          	sw	s3,32(sp)
     98c:	01412e23          	sw	s4,28(sp)
     990:	01512c23          	sw	s5,24(sp)
     994:	01612a23          	sw	s6,20(sp)
     998:	01712823          	sw	s7,16(sp)
     99c:	01812623          	sw	s8,12(sp)
     9a0:	01912423          	sw	s9,8(sp)
     9a4:	00a00313          	li	t1,10
     9a8:	00900e93          	li	t4,9
     9ac:	08000f37          	lui	t5,0x8000
     9b0:	0ea00413          	li	s0,234
     9b4:	0eb00393          	li	t2,235
     9b8:	13f00893          	li	a7,319
     9bc:	0ec00293          	li	t0,236
     9c0:	0ed00913          	li	s2,237
     9c4:	0ef00f93          	li	t6,239
     9c8:	0ee00993          	li	s3,238
     9cc:	02e00493          	li	s1,46
     9d0:	6ece0e13          	addi	t3,t3,1772 # 26ec <CSWTCH.6>
     9d4:	04679463          	bne	a5,t1,a1c <vga_draw_string+0xb0>
     9d8:	00858593          	addi	a1,a1,8
     9dc:	00500513          	li	a0,5
     9e0:	00164783          	lbu	a5,1(a2)
     9e4:	00160613          	addi	a2,a2,1
     9e8:	fe0796e3          	bnez	a5,9d4 <vga_draw_string+0x68>
     9ec:	02c12403          	lw	s0,44(sp)
     9f0:	02812483          	lw	s1,40(sp)
     9f4:	02412903          	lw	s2,36(sp)
     9f8:	02012983          	lw	s3,32(sp)
     9fc:	01c12a03          	lw	s4,28(sp)
     a00:	01812a83          	lw	s5,24(sp)
     a04:	01412b03          	lw	s6,20(sp)
     a08:	01012b83          	lw	s7,16(sp)
     a0c:	00c12c03          	lw	s8,12(sp)
     a10:	00812c83          	lw	s9,8(sp)
     a14:	03010113          	addi	sp,sp,48
     a18:	00008067          	ret
     a1c:	fd078813          	addi	a6,a5,-48
     a20:	0ff87713          	zext.b	a4,a6
     a24:	2aeef463          	bgeu	t4,a4,ccc <vga_draw_string+0x360>
     a28:	fd278793          	addi	a5,a5,-46
     a2c:	0ff7f793          	zext.b	a5,a5
     a30:	09600713          	li	a4,150
     a34:	00f4ea63          	bltu	s1,a5,a48 <vga_draw_string+0xdc>
     a38:	00fe07b3          	add	a5,t3,a5
     a3c:	00078783          	lb	a5,0(a5)
     a40:	00279713          	slli	a4,a5,0x2
     a44:	00f70733          	add	a4,a4,a5
     a48:	00259793          	slli	a5,a1,0x2
     a4c:	00b787b3          	add	a5,a5,a1
     a50:	78050813          	addi	a6,a0,1920
     a54:	00679793          	slli	a5,a5,0x6
     a58:	030e0a13          	addi	s4,t3,48
     a5c:	00f80833          	add	a6,a6,a5
     a60:	00ea0a33          	add	s4,s4,a4
     a64:	010f0833          	add	a6,t5,a6
     a68:	00550c13          	addi	s8,a0,5
     a6c:	00050713          	mv	a4,a0
     a70:	00658c93          	addi	s9,a1,6
     a74:	0e05ce63          	bltz	a1,b70 <vga_draw_string+0x204>
     a78:	40a707b3          	sub	a5,a4,a0
     a7c:	00fa07b3          	add	a5,s4,a5
     a80:	0007c783          	lbu	a5,0(a5)
     a84:	0017fa93          	andi	s5,a5,1
     a88:	0027fb13          	andi	s6,a5,2
     a8c:	0047fb93          	andi	s7,a5,4
     a90:	140a8a63          	beqz	s5,be4 <vga_draw_string+0x278>
     a94:	1ce8e463          	bltu	a7,a4,c5c <vga_draw_string+0x2f0>
     a98:	24bfd063          	bge	t6,a1,cd8 <vga_draw_string+0x36c>
     a9c:	260b0063          	beqz	s6,cfc <vga_draw_string+0x390>
     aa0:	280b8663          	beqz	s7,d2c <vga_draw_string+0x3c0>
     aa4:	0ed00a93          	li	s5,237
     aa8:	14bacc63          	blt	s5,a1,c00 <vga_draw_string+0x294>
     aac:	b0d80023          	sb	a3,-1280(a6)
     ab0:	0087fa93          	andi	s5,a5,8
     ab4:	140a8a63          	beqz	s5,c08 <vga_draw_string+0x29c>
     ab8:	02e8ea63          	bltu	a7,a4,aec <vga_draw_string+0x180>
     abc:	24b2da63          	bge	t0,a1,d10 <vga_draw_string+0x3a4>
     ac0:	0107fa93          	andi	s5,a5,16
     ac4:	220a9463          	bnez	s5,cec <vga_draw_string+0x380>
     ac8:	0207fa93          	andi	s5,a5,32
     acc:	140a8a63          	beqz	s5,c20 <vga_draw_string+0x2b4>
     ad0:	00e8ee63          	bltu	a7,a4,aec <vga_draw_string+0x180>
     ad4:	24b45663          	bge	s0,a1,d20 <vga_draw_string+0x3b4>
     ad8:	0407f793          	andi	a5,a5,64
     adc:	00078863          	beqz	a5,aec <vga_draw_string+0x180>
     ae0:	00658793          	addi	a5,a1,6
     ae4:	00ffc463          	blt	t6,a5,aec <vga_draw_string+0x180>
     ae8:	00d80023          	sb	a3,0(a6)
     aec:	00170713          	addi	a4,a4,1
     af0:	00180813          	addi	a6,a6,1
     af4:	f98712e3          	bne	a4,s8,a78 <vga_draw_string+0x10c>
     af8:	00650513          	addi	a0,a0,6
     afc:	ee5ff06f          	j	9e0 <vga_draw_string+0x74>
     b00:	b0d80023          	sb	a3,-1280(a6)
     b04:	0087fa93          	andi	s5,a5,8
     b08:	000a8a63          	beqz	s5,b1c <vga_draw_string+0x1b0>
     b0c:	04e8ec63          	bltu	a7,a4,b64 <vga_draw_string+0x1f8>
     b10:	00358a93          	addi	s5,a1,3
     b14:	0a0ac263          	bltz	s5,bb8 <vga_draw_string+0x24c>
     b18:	c4d80023          	sb	a3,-960(a6)
     b1c:	0107fa93          	andi	s5,a5,16
     b20:	000a8a63          	beqz	s5,b34 <vga_draw_string+0x1c8>
     b24:	04e8e063          	bltu	a7,a4,b64 <vga_draw_string+0x1f8>
     b28:	00458a93          	addi	s5,a1,4
     b2c:	080ace63          	bltz	s5,bc8 <vga_draw_string+0x25c>
     b30:	d8d80023          	sb	a3,-640(a6)
     b34:	0207fa93          	andi	s5,a5,32
     b38:	000a8a63          	beqz	s5,b4c <vga_draw_string+0x1e0>
     b3c:	02e8e463          	bltu	a7,a4,b64 <vga_draw_string+0x1f8>
     b40:	00558a93          	addi	s5,a1,5
     b44:	080aca63          	bltz	s5,bd8 <vga_draw_string+0x26c>
     b48:	ecd80023          	sb	a3,-320(a6)
     b4c:	0407f793          	andi	a5,a5,64
     b50:	00078a63          	beqz	a5,b64 <vga_draw_string+0x1f8>
     b54:	00e8e863          	bltu	a7,a4,b64 <vga_draw_string+0x1f8>
     b58:	00658793          	addi	a5,a1,6
     b5c:	0007c463          	bltz	a5,b64 <vga_draw_string+0x1f8>
     b60:	00d80023          	sb	a3,0(a6)
     b64:	00170713          	addi	a4,a4,1
     b68:	00180813          	addi	a6,a6,1
     b6c:	f98706e3          	beq	a4,s8,af8 <vga_draw_string+0x18c>
     b70:	40a707b3          	sub	a5,a4,a0
     b74:	00fa07b3          	add	a5,s4,a5
     b78:	0007c783          	lbu	a5,0(a5)
     b7c:	0017fa93          	andi	s5,a5,1
     b80:	0027fb93          	andi	s7,a5,2
     b84:	0047fb13          	andi	s6,a5,4
     b88:	0e0a9863          	bnez	s5,c78 <vga_draw_string+0x30c>
     b8c:	100b8863          	beqz	s7,c9c <vga_draw_string+0x330>
     b90:	1ae8e463          	bltu	a7,a4,d38 <vga_draw_string+0x3cc>
     b94:	00158a93          	addi	s5,a1,1
     b98:	100a8063          	beqz	s5,c98 <vga_draw_string+0x32c>
     b9c:	f60b04e3          	beqz	s6,b04 <vga_draw_string+0x198>
     ba0:	00258a93          	addi	s5,a1,2
     ba4:	f40adee3          	bgez	s5,b00 <vga_draw_string+0x194>
     ba8:	0087fa93          	andi	s5,a5,8
     bac:	f60a88e3          	beqz	s5,b1c <vga_draw_string+0x1b0>
     bb0:	00358a93          	addi	s5,a1,3
     bb4:	f60ad2e3          	bgez	s5,b18 <vga_draw_string+0x1ac>
     bb8:	0107fa93          	andi	s5,a5,16
     bbc:	f60a8ce3          	beqz	s5,b34 <vga_draw_string+0x1c8>
     bc0:	00458a93          	addi	s5,a1,4
     bc4:	f60ad6e3          	bgez	s5,b30 <vga_draw_string+0x1c4>
     bc8:	0207fa93          	andi	s5,a5,32
     bcc:	f80a80e3          	beqz	s5,b4c <vga_draw_string+0x1e0>
     bd0:	00558a93          	addi	s5,a1,5
     bd4:	f60adae3          	bgez	s5,b48 <vga_draw_string+0x1dc>
     bd8:	0407f793          	andi	a5,a5,64
     bdc:	f80784e3          	beqz	a5,b64 <vga_draw_string+0x1f8>
     be0:	f79ff06f          	j	b58 <vga_draw_string+0x1ec>
     be4:	000b0863          	beqz	s6,bf4 <vga_draw_string+0x288>
     be8:	06e8ea63          	bltu	a7,a4,c5c <vga_draw_string+0x2f0>
     bec:	0eb9cc63          	blt	s3,a1,ce4 <vga_draw_string+0x378>
     bf0:	9cd80023          	sb	a3,-1600(a6)
     bf4:	ea0b8ee3          	beqz	s7,ab0 <vga_draw_string+0x144>
     bf8:	02e8ee63          	bltu	a7,a4,c34 <vga_draw_string+0x2c8>
     bfc:	eab958e3          	bge	s2,a1,aac <vga_draw_string+0x140>
     c00:	0087fa93          	andi	s5,a5,8
     c04:	100a9263          	bnez	s5,d08 <vga_draw_string+0x39c>
     c08:	0107fa93          	andi	s5,a5,16
     c0c:	ea0a8ee3          	beqz	s5,ac8 <vga_draw_string+0x15c>
     c10:	ece8eee3          	bltu	a7,a4,aec <vga_draw_string+0x180>
     c14:	0eb3d063          	bge	t2,a1,cf4 <vga_draw_string+0x388>
     c18:	0207fa93          	andi	s5,a5,32
     c1c:	0e0a9e63          	bnez	s5,d18 <vga_draw_string+0x3ac>
     c20:	0407f793          	andi	a5,a5,64
     c24:	ec0784e3          	beqz	a5,aec <vga_draw_string+0x180>
     c28:	ece8e2e3          	bltu	a7,a4,aec <vga_draw_string+0x180>
     c2c:	000c8793          	mv	a5,s9
     c30:	eb5ff06f          	j	ae4 <vga_draw_string+0x178>
     c34:	0087fa93          	andi	s5,a5,8
     c38:	ea0a9ae3          	bnez	s5,aec <vga_draw_string+0x180>
     c3c:	0107fa93          	andi	s5,a5,16
     c40:	ea0a96e3          	bnez	s5,aec <vga_draw_string+0x180>
     c44:	0207fa93          	andi	s5,a5,32
     c48:	fc0a8ce3          	beqz	s5,c20 <vga_draw_string+0x2b4>
     c4c:	00170713          	addi	a4,a4,1
     c50:	00180813          	addi	a6,a6,1
     c54:	e38712e3          	bne	a4,s8,a78 <vga_draw_string+0x10c>
     c58:	ea1ff06f          	j	af8 <vga_draw_string+0x18c>
     c5c:	fc0b9ce3          	bnez	s7,c34 <vga_draw_string+0x2c8>
     c60:	0087fa93          	andi	s5,a5,8
     c64:	fa0a82e3          	beqz	s5,c08 <vga_draw_string+0x29c>
     c68:	00170713          	addi	a4,a4,1
     c6c:	00180813          	addi	a6,a6,1
     c70:	e18714e3          	bne	a4,s8,a78 <vga_draw_string+0x10c>
     c74:	e85ff06f          	j	af8 <vga_draw_string+0x18c>
     c78:	04e8e063          	bltu	a7,a4,cb8 <vga_draw_string+0x34c>
     c7c:	f00b9ce3          	bnez	s7,b94 <vga_draw_string+0x228>
     c80:	f20b10e3          	bnez	s6,ba0 <vga_draw_string+0x234>
     c84:	0087fa93          	andi	s5,a5,8
     c88:	e80a94e3          	bnez	s5,b10 <vga_draw_string+0x1a4>
     c8c:	0107fa93          	andi	s5,a5,16
     c90:	ea0a82e3          	beqz	s5,b34 <vga_draw_string+0x1c8>
     c94:	f2dff06f          	j	bc0 <vga_draw_string+0x254>
     c98:	9cd80023          	sb	a3,-1600(a6)
     c9c:	e60b04e3          	beqz	s6,b04 <vga_draw_string+0x198>
     ca0:	f0e8f0e3          	bgeu	a7,a4,ba0 <vga_draw_string+0x234>
     ca4:	0087fa93          	andi	s5,a5,8
     ca8:	ea0a9ee3          	bnez	s5,b64 <vga_draw_string+0x1f8>
     cac:	0207fa93          	andi	s5,a5,32
     cb0:	ea0a9ae3          	bnez	s5,b64 <vga_draw_string+0x1f8>
     cb4:	e99ff06f          	j	b4c <vga_draw_string+0x1e0>
     cb8:	000b8463          	beqz	s7,cc0 <vga_draw_string+0x354>
     cbc:	fe0b14e3          	bnez	s6,ca4 <vga_draw_string+0x338>
     cc0:	0087fa93          	andi	s5,a5,8
     cc4:	ea0a90e3          	bnez	s5,b64 <vga_draw_string+0x1f8>
     cc8:	e55ff06f          	j	b1c <vga_draw_string+0x1b0>
     ccc:	00281713          	slli	a4,a6,0x2
     cd0:	01070733          	add	a4,a4,a6
     cd4:	d75ff06f          	j	a48 <vga_draw_string+0xdc>
     cd8:	88d80023          	sb	a3,-1920(a6)
     cdc:	040b0663          	beqz	s6,d28 <vga_draw_string+0x3bc>
     ce0:	f1f598e3          	bne	a1,t6,bf0 <vga_draw_string+0x284>
     ce4:	dc0b86e3          	beqz	s7,ab0 <vga_draw_string+0x144>
     ce8:	dbdff06f          	j	aa4 <vga_draw_string+0x138>
     cec:	0eb00a93          	li	s5,235
     cf0:	f2bac4e3          	blt	s5,a1,c18 <vga_draw_string+0x2ac>
     cf4:	d8d80023          	sb	a3,-640(a6)
     cf8:	dd1ff06f          	j	ac8 <vga_draw_string+0x15c>
     cfc:	0087fa93          	andi	s5,a5,8
     d00:	020b8863          	beqz	s7,d30 <vga_draw_string+0x3c4>
     d04:	040a8663          	beqz	s5,d50 <vga_draw_string+0x3e4>
     d08:	0ec00a93          	li	s5,236
     d0c:	dabacae3          	blt	s5,a1,ac0 <vga_draw_string+0x154>
     d10:	c4d80023          	sb	a3,-960(a6)
     d14:	ef5ff06f          	j	c08 <vga_draw_string+0x29c>
     d18:	0ea00a93          	li	s5,234
     d1c:	dabacee3          	blt	s5,a1,ad8 <vga_draw_string+0x16c>
     d20:	ecd80023          	sb	a3,-320(a6)
     d24:	efdff06f          	j	c20 <vga_draw_string+0x2b4>
     d28:	ec0b9ae3          	bnez	s7,bfc <vga_draw_string+0x290>
     d2c:	0087fa93          	andi	s5,a5,8
     d30:	d80a96e3          	bnez	s5,abc <vga_draw_string+0x150>
     d34:	ed5ff06f          	j	c08 <vga_draw_string+0x29c>
     d38:	f80b14e3          	bnez	s6,cc0 <vga_draw_string+0x354>
     d3c:	0087fa93          	andi	s5,a5,8
     d40:	e20a92e3          	bnez	s5,b64 <vga_draw_string+0x1f8>
     d44:	0107fa93          	andi	s5,a5,16
     d48:	e00a9ee3          	bnez	s5,b64 <vga_draw_string+0x1f8>
     d4c:	de9ff06f          	j	b34 <vga_draw_string+0x1c8>
     d50:	0107fa93          	andi	s5,a5,16
     d54:	ec0a90e3          	bnez	s5,c14 <vga_draw_string+0x2a8>
     d58:	0207fa93          	andi	s5,a5,32
     d5c:	d60a9ce3          	bnez	s5,ad4 <vga_draw_string+0x168>
     d60:	ec1ff06f          	j	c20 <vga_draw_string+0x2b4>
     d64:	00008067          	ret

00000d68 <vga_draw_block>:
     d68:	00451513          	slli	a0,a0,0x4
     d6c:	13f00793          	li	a5,319
     d70:	12a7ca63          	blt	a5,a0,ea4 <vga_draw_block+0x13c>
     d74:	00459593          	slli	a1,a1,0x4
     d78:	01458713          	addi	a4,a1,20
     d7c:	0ef00793          	li	a5,239
     d80:	12e7c263          	blt	a5,a4,ea4 <vga_draw_block+0x13c>
     d84:	00271793          	slli	a5,a4,0x2
     d88:	00e787b3          	add	a5,a5,a4
     d8c:	00d50893          	addi	a7,a0,13
     d90:	00679793          	slli	a5,a5,0x6
     d94:	fe010113          	addi	sp,sp,-32
     d98:	011787b3          	add	a5,a5,a7
     d9c:	080006b7          	lui	a3,0x8000
     da0:	00812e23          	sw	s0,28(sp)
     da4:	00912c23          	sw	s1,24(sp)
     da8:	01212a23          	sw	s2,20(sp)
     dac:	01312823          	sw	s3,16(sp)
     db0:	01412623          	sw	s4,12(sp)
     db4:	01512423          	sw	s5,8(sp)
     db8:	00f686b3          	add	a3,a3,a5
     dbc:	02358593          	addi	a1,a1,35
     dc0:	00150a93          	addi	s5,a0,1
     dc4:	00250a13          	addi	s4,a0,2
     dc8:	00350993          	addi	s3,a0,3
     dcc:	00450913          	addi	s2,a0,4
     dd0:	00550493          	addi	s1,a0,5
     dd4:	00650413          	addi	s0,a0,6
     dd8:	00750393          	addi	t2,a0,7
     ddc:	00850293          	addi	t0,a0,8
     de0:	00950f93          	addi	t6,a0,9
     de4:	00a50f13          	addi	t5,a0,10
     de8:	00b50e93          	addi	t4,a0,11
     dec:	00c50e13          	addi	t3,a0,12
     df0:	00e50313          	addi	t1,a0,14
     df4:	0ef00813          	li	a6,239
     df8:	13f00793          	li	a5,319
     dfc:	06e86e63          	bltu	a6,a4,e78 <vga_draw_block+0x110>
     e00:	00a7e463          	bltu	a5,a0,e08 <vga_draw_block+0xa0>
     e04:	fec689a3          	sb	a2,-13(a3) # 7fffff3 <_stack_end+0x7efd757>
     e08:	0157e463          	bltu	a5,s5,e10 <vga_draw_block+0xa8>
     e0c:	fec68a23          	sb	a2,-12(a3)
     e10:	0147e463          	bltu	a5,s4,e18 <vga_draw_block+0xb0>
     e14:	fec68aa3          	sb	a2,-11(a3)
     e18:	0137e463          	bltu	a5,s3,e20 <vga_draw_block+0xb8>
     e1c:	fec68b23          	sb	a2,-10(a3)
     e20:	0127e463          	bltu	a5,s2,e28 <vga_draw_block+0xc0>
     e24:	fec68ba3          	sb	a2,-9(a3)
     e28:	0097e463          	bltu	a5,s1,e30 <vga_draw_block+0xc8>
     e2c:	fec68c23          	sb	a2,-8(a3)
     e30:	0087e463          	bltu	a5,s0,e38 <vga_draw_block+0xd0>
     e34:	fec68ca3          	sb	a2,-7(a3)
     e38:	0077e463          	bltu	a5,t2,e40 <vga_draw_block+0xd8>
     e3c:	fec68d23          	sb	a2,-6(a3)
     e40:	0057e463          	bltu	a5,t0,e48 <vga_draw_block+0xe0>
     e44:	fec68da3          	sb	a2,-5(a3)
     e48:	01f7e463          	bltu	a5,t6,e50 <vga_draw_block+0xe8>
     e4c:	fec68e23          	sb	a2,-4(a3)
     e50:	01e7e463          	bltu	a5,t5,e58 <vga_draw_block+0xf0>
     e54:	fec68ea3          	sb	a2,-3(a3)
     e58:	01d7e463          	bltu	a5,t4,e60 <vga_draw_block+0xf8>
     e5c:	fec68f23          	sb	a2,-2(a3)
     e60:	01c7e463          	bltu	a5,t3,e68 <vga_draw_block+0x100>
     e64:	fec68fa3          	sb	a2,-1(a3)
     e68:	0117e463          	bltu	a5,a7,e70 <vga_draw_block+0x108>
     e6c:	00c68023          	sb	a2,0(a3)
     e70:	0067e463          	bltu	a5,t1,e78 <vga_draw_block+0x110>
     e74:	00c680a3          	sb	a2,1(a3)
     e78:	00170713          	addi	a4,a4,1
     e7c:	14068693          	addi	a3,a3,320
     e80:	f6e59ee3          	bne	a1,a4,dfc <vga_draw_block+0x94>
     e84:	01c12403          	lw	s0,28(sp)
     e88:	01812483          	lw	s1,24(sp)
     e8c:	01412903          	lw	s2,20(sp)
     e90:	01012983          	lw	s3,16(sp)
     e94:	00c12a03          	lw	s4,12(sp)
     e98:	00812a83          	lw	s5,8(sp)
     e9c:	02010113          	addi	sp,sp,32
     ea0:	00008067          	ret
     ea4:	00008067          	ret

00000ea8 <set_leds>:
     ea8:	040007b7          	lui	a5,0x4000
     eac:	00a7a023          	sw	a0,0(a5) # 4000000 <_stack_end+0x3efd764>
     eb0:	00008067          	ret

00000eb4 <get_btn>:
     eb4:	040007b7          	lui	a5,0x4000
     eb8:	0d07a503          	lw	a0,208(a5) # 40000d0 <_stack_end+0x3efd834>
     ebc:	00f57513          	andi	a0,a0,15
     ec0:	00008067          	ret

00000ec4 <get_sw>:
     ec4:	040007b7          	lui	a5,0x4000
     ec8:	0107a503          	lw	a0,16(a5) # 4000010 <_stack_end+0x3efd774>
     ecc:	3ff57513          	andi	a0,a0,1023
     ed0:	00008067          	ret

00000ed4 <set_display>:
     ed4:	00900793          	li	a5,9
     ed8:	07f00713          	li	a4,127
     edc:	00b7ec63          	bltu	a5,a1,ef4 <set_display+0x20>
     ee0:	000027b7          	lui	a5,0x2
     ee4:	00259593          	slli	a1,a1,0x2
     ee8:	7b878793          	addi	a5,a5,1976 # 27b8 <sev_seg_map.0>
     eec:	00b787b3          	add	a5,a5,a1
     ef0:	0007a703          	lw	a4,0(a5)
     ef4:	004007b7          	lui	a5,0x400
     ef8:	00578793          	addi	a5,a5,5 # 400005 <_stack_end+0x2fd769>
     efc:	00f50533          	add	a0,a0,a5
     f00:	00451513          	slli	a0,a0,0x4
     f04:	00e52023          	sw	a4,0(a0)
     f08:	00008067          	ret

00000f0c <rand_range>:
     f0c:	000026b7          	lui	a3,0x2
     f10:	eac6a783          	lw	a5,-340(a3) # 1eac <rng_seed>
     f14:	41c65737          	lui	a4,0x41c65
     f18:	e6d70713          	addi	a4,a4,-403 # 41c64e6d <_stack_end+0x41b625d1>
     f1c:	02e787b3          	mul	a5,a5,a4
     f20:	00003737          	lui	a4,0x3
     f24:	03970713          	addi	a4,a4,57 # 3039 <sev_seg_map.0+0x881>
     f28:	40a585b3          	sub	a1,a1,a0
     f2c:	00e787b3          	add	a5,a5,a4
     f30:	00179713          	slli	a4,a5,0x1
     f34:	01175713          	srli	a4,a4,0x11
     f38:	02b77733          	remu	a4,a4,a1
     f3c:	eaf6a623          	sw	a5,-340(a3)
     f40:	00a70533          	add	a0,a4,a0
     f44:	00008067          	ret

00000f48 <draw_score_hud>:
     f48:	fe010113          	addi	sp,sp,-32
     f4c:	00812c23          	sw	s0,24(sp)
     f50:	00002437          	lui	s0,0x2
     f54:	6e442703          	lw	a4,1764(s0) # 26e4 <score>
     f58:	00112e23          	sw	ra,28(sp)
     f5c:	00912a23          	sw	s1,20(sp)
     f60:	0a071263          	bnez	a4,1004 <draw_score_hud+0xbc>
     f64:	03000793          	li	a5,48
     f68:	00f11023          	sh	a5,0(sp)
     f6c:	00002637          	lui	a2,0x2
     f70:	00000693          	li	a3,0
     f74:	7e060613          	addi	a2,a2,2016 # 27e0 <sev_seg_map.0+0x28>
     f78:	00500593          	li	a1,5
     f7c:	02d00513          	li	a0,45
     f80:	9edff0ef          	jal	96c <vga_draw_string>
     f84:	00010613          	mv	a2,sp
     f88:	0fc00693          	li	a3,252
     f8c:	00500593          	li	a1,5
     f90:	02d00513          	li	a0,45
     f94:	9d9ff0ef          	jal	96c <vga_draw_string>
     f98:	6e442583          	lw	a1,1764(s0)
     f9c:	00a00493          	li	s1,10
     fa0:	00000513          	li	a0,0
     fa4:	0295e5b3          	rem	a1,a1,s1
     fa8:	f2dff0ef          	jal	ed4 <set_display>
     fac:	6e442583          	lw	a1,1764(s0)
     fb0:	00100513          	li	a0,1
     fb4:	0295c5b3          	div	a1,a1,s1
     fb8:	0295e5b3          	rem	a1,a1,s1
     fbc:	f19ff0ef          	jal	ed4 <set_display>
     fc0:	6e442583          	lw	a1,1764(s0)
     fc4:	06400793          	li	a5,100
     fc8:	00200513          	li	a0,2
     fcc:	02f5c5b3          	div	a1,a1,a5
     fd0:	0295e5b3          	rem	a1,a1,s1
     fd4:	f01ff0ef          	jal	ed4 <set_display>
     fd8:	6e442583          	lw	a1,1764(s0)
     fdc:	3e800793          	li	a5,1000
     fe0:	00300513          	li	a0,3
     fe4:	02f5c5b3          	div	a1,a1,a5
     fe8:	0295e5b3          	rem	a1,a1,s1
     fec:	ee9ff0ef          	jal	ed4 <set_display>
     ff0:	01c12083          	lw	ra,28(sp)
     ff4:	01812403          	lw	s0,24(sp)
     ff8:	01412483          	lw	s1,20(sp)
     ffc:	02010113          	addi	sp,sp,32
    1000:	00008067          	ret
    1004:	1ae05e63          	blez	a4,11c0 <draw_score_hud+0x278>
    1008:	00a00693          	li	a3,10
    100c:	02d76633          	rem	a2,a4,a3
    1010:	00900593          	li	a1,9
    1014:	03060613          	addi	a2,a2,48
    1018:	0ff67613          	zext.b	a2,a2
    101c:	00c10023          	sb	a2,0(sp)
    1020:	02d747b3          	div	a5,a4,a3
    1024:	18e5d263          	bge	a1,a4,11a8 <draw_score_hud+0x260>
    1028:	06300513          	li	a0,99
    102c:	02d7e5b3          	rem	a1,a5,a3
    1030:	03058593          	addi	a1,a1,48
    1034:	00b100a3          	sb	a1,1(sp)
    1038:	02d7c7b3          	div	a5,a5,a3
    103c:	18e55663          	bge	a0,a4,11c8 <draw_score_hud+0x280>
    1040:	3e700513          	li	a0,999
    1044:	02d7e5b3          	rem	a1,a5,a3
    1048:	03058593          	addi	a1,a1,48
    104c:	00b10123          	sb	a1,2(sp)
    1050:	02d7c7b3          	div	a5,a5,a3
    1054:	18e55a63          	bge	a0,a4,11e8 <draw_score_hud+0x2a0>
    1058:	000025b7          	lui	a1,0x2
    105c:	70f58593          	addi	a1,a1,1807 # 270f <CSWTCH.6+0x23>
    1060:	02d7e533          	rem	a0,a5,a3
    1064:	03050513          	addi	a0,a0,48
    1068:	00a101a3          	sb	a0,3(sp)
    106c:	02d7c7b3          	div	a5,a5,a3
    1070:	18e5d263          	bge	a1,a4,11f4 <draw_score_hud+0x2ac>
    1074:	000185b7          	lui	a1,0x18
    1078:	69f58593          	addi	a1,a1,1695 # 1869f <sev_seg_map.0+0x15ee7>
    107c:	02d7e533          	rem	a0,a5,a3
    1080:	03050513          	addi	a0,a0,48
    1084:	00a10223          	sb	a0,4(sp)
    1088:	02d7c7b3          	div	a5,a5,a3
    108c:	16e5dc63          	bge	a1,a4,1204 <draw_score_hud+0x2bc>
    1090:	000f45b7          	lui	a1,0xf4
    1094:	23f58593          	addi	a1,a1,575 # f423f <sev_seg_map.0+0xf1a87>
    1098:	02d7e533          	rem	a0,a5,a3
    109c:	03050513          	addi	a0,a0,48
    10a0:	00a102a3          	sb	a0,5(sp)
    10a4:	02d7c7b3          	div	a5,a5,a3
    10a8:	16e5d663          	bge	a1,a4,1214 <draw_score_hud+0x2cc>
    10ac:	009895b7          	lui	a1,0x989
    10b0:	67f58593          	addi	a1,a1,1663 # 98967f <_stack_end+0x886de3>
    10b4:	02d7e533          	rem	a0,a5,a3
    10b8:	03050513          	addi	a0,a0,48
    10bc:	00a10323          	sb	a0,6(sp)
    10c0:	02d7c7b3          	div	a5,a5,a3
    10c4:	16e5d063          	bge	a1,a4,1224 <draw_score_hud+0x2dc>
    10c8:	05f5e5b7          	lui	a1,0x5f5e
    10cc:	0ff58593          	addi	a1,a1,255 # 5f5e0ff <_stack_end+0x5e5b863>
    10d0:	02d7e533          	rem	a0,a5,a3
    10d4:	03050513          	addi	a0,a0,48
    10d8:	00a103a3          	sb	a0,7(sp)
    10dc:	02d7c7b3          	div	a5,a5,a3
    10e0:	0ce5d863          	bge	a1,a4,11b0 <draw_score_hud+0x268>
    10e4:	00a00513          	li	a0,10
    10e8:	3b9ad6b7          	lui	a3,0x3b9ad
    10ec:	9ff68693          	addi	a3,a3,-1537 # 3b9ac9ff <_stack_end+0x3b8aa163>
    10f0:	02a7e5b3          	rem	a1,a5,a0
    10f4:	03058593          	addi	a1,a1,48
    10f8:	00b10423          	sb	a1,8(sp)
    10fc:	02a7c7b3          	div	a5,a5,a0
    1100:	12e6da63          	bge	a3,a4,1234 <draw_score_hud+0x2ec>
    1104:	03078793          	addi	a5,a5,48
    1108:	00f104a3          	sb	a5,9(sp)
    110c:	00010523          	sb	zero,10(sp)
    1110:	00900793          	li	a5,9
    1114:	00500593          	li	a1,5
    1118:	01078693          	addi	a3,a5,16
    111c:	002686b3          	add	a3,a3,sp
    1120:	00f78713          	addi	a4,a5,15
    1124:	ff06c503          	lbu	a0,-16(a3)
    1128:	00270733          	add	a4,a4,sp
    112c:	fec68823          	sb	a2,-16(a3)
    1130:	ff074683          	lbu	a3,-16(a4)
    1134:	00114603          	lbu	a2,1(sp)
    1138:	00a10023          	sb	a0,0(sp)
    113c:	00d100a3          	sb	a3,1(sp)
    1140:	fec70823          	sb	a2,-16(a4)
    1144:	00200713          	li	a4,2
    1148:	e2e582e3          	beq	a1,a4,f6c <draw_score_hud+0x24>
    114c:	00e78713          	addi	a4,a5,14
    1150:	00270733          	add	a4,a4,sp
    1154:	ff074503          	lbu	a0,-16(a4)
    1158:	00214603          	lbu	a2,2(sp)
    115c:	00300693          	li	a3,3
    1160:	00a10123          	sb	a0,2(sp)
    1164:	fec70823          	sb	a2,-16(a4)
    1168:	e0d582e3          	beq	a1,a3,f6c <draw_score_hud+0x24>
    116c:	00d78713          	addi	a4,a5,13
    1170:	00270733          	add	a4,a4,sp
    1174:	ff074503          	lbu	a0,-16(a4)
    1178:	00314603          	lbu	a2,3(sp)
    117c:	00500693          	li	a3,5
    1180:	00a101a3          	sb	a0,3(sp)
    1184:	fec70823          	sb	a2,-16(a4)
    1188:	ded592e3          	bne	a1,a3,f6c <draw_score_hud+0x24>
    118c:	00c78793          	addi	a5,a5,12
    1190:	002787b3          	add	a5,a5,sp
    1194:	ff07c683          	lbu	a3,-16(a5)
    1198:	00414703          	lbu	a4,4(sp)
    119c:	00d10223          	sb	a3,4(sp)
    11a0:	fee78823          	sb	a4,-16(a5)
    11a4:	dc9ff06f          	j	f6c <draw_score_hud+0x24>
    11a8:	000100a3          	sb	zero,1(sp)
    11ac:	dc1ff06f          	j	f6c <draw_score_hud+0x24>
    11b0:	00010423          	sb	zero,8(sp)
    11b4:	00700793          	li	a5,7
    11b8:	00400593          	li	a1,4
    11bc:	f5dff06f          	j	1118 <draw_score_hud+0x1d0>
    11c0:	00010023          	sb	zero,0(sp)
    11c4:	da9ff06f          	j	f6c <draw_score_hud+0x24>
    11c8:	00010123          	sb	zero,2(sp)
    11cc:	00100793          	li	a5,1
    11d0:	01078793          	addi	a5,a5,16
    11d4:	002787b3          	add	a5,a5,sp
    11d8:	ff07c703          	lbu	a4,-16(a5)
    11dc:	fec78823          	sb	a2,-16(a5)
    11e0:	00e10023          	sb	a4,0(sp)
    11e4:	d89ff06f          	j	f6c <draw_score_hud+0x24>
    11e8:	000101a3          	sb	zero,3(sp)
    11ec:	00200793          	li	a5,2
    11f0:	fe1ff06f          	j	11d0 <draw_score_hud+0x288>
    11f4:	00010223          	sb	zero,4(sp)
    11f8:	00300793          	li	a5,3
    11fc:	00200593          	li	a1,2
    1200:	f19ff06f          	j	1118 <draw_score_hud+0x1d0>
    1204:	000102a3          	sb	zero,5(sp)
    1208:	00400793          	li	a5,4
    120c:	00200593          	li	a1,2
    1210:	f09ff06f          	j	1118 <draw_score_hud+0x1d0>
    1214:	00010323          	sb	zero,6(sp)
    1218:	00500793          	li	a5,5
    121c:	00300593          	li	a1,3
    1220:	ef9ff06f          	j	1118 <draw_score_hud+0x1d0>
    1224:	000103a3          	sb	zero,7(sp)
    1228:	00600793          	li	a5,6
    122c:	00300593          	li	a1,3
    1230:	ee9ff06f          	j	1118 <draw_score_hud+0x1d0>
    1234:	000104a3          	sb	zero,9(sp)
    1238:	00800793          	li	a5,8
    123c:	00400593          	li	a1,4
    1240:	ed9ff06f          	j	1118 <draw_score_hud+0x1d0>

00001244 <spawn_food>:
    1244:	000027b7          	lui	a5,0x2
    1248:	6e87a283          	lw	t0,1768(a5) # 26e8 <length>
    124c:	10200793          	li	a5,258
    1250:	0c57c463          	blt	a5,t0,1318 <spawn_food+0xd4>
    1254:	00002fb7          	lui	t6,0x2
    1258:	00002f37          	lui	t5,0x2
    125c:	eacfa803          	lw	a6,-340(t6) # 1eac <rng_seed>
    1260:	ff010113          	addi	sp,sp,-16
    1264:	eb4f0f13          	addi	t5,t5,-332 # 1eb4 <body_x>
    1268:	00229613          	slli	a2,t0,0x2
    126c:	41c65eb7          	lui	t4,0x41c65
    1270:	00003e37          	lui	t3,0x3
    1274:	00008337          	lui	t1,0x8
    1278:	00812623          	sw	s0,12(sp)
    127c:	00cf0633          	add	a2,t5,a2
    1280:	1f400893          	li	a7,500
    1284:	e6de8e93          	addi	t4,t4,-403 # 41c64e6d <_stack_end+0x41b625d1>
    1288:	039e0e13          	addi	t3,t3,57 # 3039 <sev_seg_map.0+0x881>
    128c:	fff30313          	addi	t1,t1,-1 # 7fff <sev_seg_map.0+0x5847>
    1290:	01400413          	li	s0,20
    1294:	00d00393          	li	t2,13
    1298:	03d80533          	mul	a0,a6,t4
    129c:	01c50533          	add	a0,a0,t3
    12a0:	03d50833          	mul	a6,a0,t4
    12a4:	01055513          	srli	a0,a0,0x10
    12a8:	00657533          	and	a0,a0,t1
    12ac:	01c80833          	add	a6,a6,t3
    12b0:	01085593          	srli	a1,a6,0x10
    12b4:	0065f5b3          	and	a1,a1,t1
    12b8:	02857533          	remu	a0,a0,s0
    12bc:	0275f5b3          	remu	a1,a1,t2
    12c0:	02505a63          	blez	t0,12f4 <spawn_food+0xb0>
    12c4:	410f0713          	addi	a4,t5,1040
    12c8:	000f0793          	mv	a5,t5
    12cc:	00c0006f          	j	12d8 <spawn_food+0x94>
    12d0:	00470713          	addi	a4,a4,4
    12d4:	02c78063          	beq	a5,a2,12f4 <spawn_food+0xb0>
    12d8:	0007a683          	lw	a3,0(a5)
    12dc:	00478793          	addi	a5,a5,4
    12e0:	fea698e3          	bne	a3,a0,12d0 <spawn_food+0x8c>
    12e4:	00072683          	lw	a3,0(a4)
    12e8:	feb694e3          	bne	a3,a1,12d0 <spawn_food+0x8c>
    12ec:	fff88893          	addi	a7,a7,-1
    12f0:	fa0894e3          	bnez	a7,1298 <spawn_food+0x54>
    12f4:	00c12403          	lw	s0,12(sp)
    12f8:	000027b7          	lui	a5,0x2
    12fc:	6cb7ac23          	sw	a1,1752(a5) # 26d8 <food_y>
    1300:	000027b7          	lui	a5,0x2
    1304:	6ca7ae23          	sw	a0,1756(a5) # 26dc <food_x>
    1308:	eb0fa623          	sw	a6,-340(t6)
    130c:	0e000613          	li	a2,224
    1310:	01010113          	addi	sp,sp,16
    1314:	a55ff06f          	j	d68 <vga_draw_block>
    1318:	00008067          	ret

0000131c <snake_init>:
    131c:	fe010113          	addi	sp,sp,-32
    1320:	00002737          	lui	a4,0x2
    1324:	01312623          	sw	s3,12(sp)
    1328:	6e072223          	sw	zero,1764(a4) # 26e4 <score>
    132c:	000029b7          	lui	s3,0x2
    1330:	00500713          	li	a4,5
    1334:	07200793          	li	a5,114
    1338:	6ee9a423          	sw	a4,1768(s3) # 26e8 <length>
    133c:	00002737          	lui	a4,0x2
    1340:	eaf708a3          	sb	a5,-335(a4) # 1eb1 <dir>
    1344:	00002737          	lui	a4,0x2
    1348:	eaf70823          	sb	a5,-336(a4) # 1eb0 <next_dir>
    134c:	000027b7          	lui	a5,0x2
    1350:	6e0780a3          	sb	zero,1761(a5) # 26e1 <game_over>
    1354:	000027b7          	lui	a5,0x2
    1358:	6e078023          	sb	zero,1760(a5) # 26e0 <is_paused>
    135c:	00112e23          	sw	ra,28(sp)
    1360:	b65ff0ef          	jal	ec4 <get_sw>
    1364:	000037b7          	lui	a5,0x3
    1368:	03978793          	addi	a5,a5,57 # 3039 <sev_seg_map.0+0x881>
    136c:	6e89a583          	lw	a1,1768(s3)
    1370:	00f50533          	add	a0,a0,a5
    1374:	000027b7          	lui	a5,0x2
    1378:	eaa7a623          	sw	a0,-340(a5) # 1eac <rng_seed>
    137c:	02b05c63          	blez	a1,13b4 <snake_init+0x98>
    1380:	00002737          	lui	a4,0x2
    1384:	eb470713          	addi	a4,a4,-332 # 1eb4 <body_x>
    1388:	00a00613          	li	a2,10
    138c:	40b60633          	sub	a2,a2,a1
    1390:	41070693          	addi	a3,a4,1040
    1394:	00a00793          	li	a5,10
    1398:	00600593          	li	a1,6
    139c:	00f72023          	sw	a5,0(a4)
    13a0:	00b6a023          	sw	a1,0(a3)
    13a4:	fff78793          	addi	a5,a5,-1
    13a8:	00470713          	addi	a4,a4,4
    13ac:	00468693          	addi	a3,a3,4
    13b0:	fec796e3          	bne	a5,a2,139c <snake_init+0x80>
    13b4:	00000513          	li	a0,0
    13b8:	850ff0ef          	jal	408 <vga_clear_screen>
    13bc:	00002637          	lui	a2,0x2
    13c0:	0ff00693          	li	a3,255
    13c4:	7e860613          	addi	a2,a2,2024 # 27e8 <sev_seg_map.0+0x30>
    13c8:	00500593          	li	a1,5
    13cc:	00500513          	li	a0,5
    13d0:	d9cff0ef          	jal	96c <vga_draw_string>
    13d4:	00002637          	lui	a2,0x2
    13d8:	01c00693          	li	a3,28
    13dc:	7f060613          	addi	a2,a2,2032 # 27f0 <sev_seg_map.0+0x38>
    13e0:	00500593          	li	a1,5
    13e4:	10400513          	li	a0,260
    13e8:	d84ff0ef          	jal	96c <vga_draw_string>
    13ec:	0ff00713          	li	a4,255
    13f0:	01300693          	li	a3,19
    13f4:	13f00613          	li	a2,319
    13f8:	01300593          	li	a1,19
    13fc:	00000513          	li	a0,0
    1400:	824ff0ef          	jal	424 <vga_draw_line>
    1404:	b45ff0ef          	jal	f48 <draw_score_hud>
    1408:	e3dff0ef          	jal	1244 <spawn_food>
    140c:	6e89a783          	lw	a5,1768(s3)
    1410:	06f05863          	blez	a5,1480 <snake_init+0x164>
    1414:	00812c23          	sw	s0,24(sp)
    1418:	00002437          	lui	s0,0x2
    141c:	eb440413          	addi	s0,s0,-332 # 1eb4 <body_x>
    1420:	41042583          	lw	a1,1040(s0)
    1424:	00042503          	lw	a0,0(s0)
    1428:	01f00613          	li	a2,31
    142c:	00912a23          	sw	s1,20(sp)
    1430:	939ff0ef          	jal	d68 <vga_draw_block>
    1434:	6e89a783          	lw	a5,1768(s3)
    1438:	00100713          	li	a4,1
    143c:	00440493          	addi	s1,s0,4
    1440:	41440413          	addi	s0,s0,1044
    1444:	04f75c63          	bge	a4,a5,149c <snake_init+0x180>
    1448:	01212823          	sw	s2,16(sp)
    144c:	00100913          	li	s2,1
    1450:	00042583          	lw	a1,0(s0)
    1454:	0004a503          	lw	a0,0(s1)
    1458:	01c00613          	li	a2,28
    145c:	00190913          	addi	s2,s2,1
    1460:	909ff0ef          	jal	d68 <vga_draw_block>
    1464:	6e89a783          	lw	a5,1768(s3)
    1468:	00448493          	addi	s1,s1,4
    146c:	00440413          	addi	s0,s0,4
    1470:	fef940e3          	blt	s2,a5,1450 <snake_init+0x134>
    1474:	01812403          	lw	s0,24(sp)
    1478:	01412483          	lw	s1,20(sp)
    147c:	01012903          	lw	s2,16(sp)
    1480:	01c12083          	lw	ra,28(sp)
    1484:	00c12983          	lw	s3,12(sp)
    1488:	00100513          	li	a0,1
    148c:	00f51533          	sll	a0,a0,a5
    1490:	fff50513          	addi	a0,a0,-1
    1494:	02010113          	addi	sp,sp,32
    1498:	a11ff06f          	j	ea8 <set_leds>
    149c:	01812403          	lw	s0,24(sp)
    14a0:	01412483          	lw	s1,20(sp)
    14a4:	fddff06f          	j	1480 <snake_init+0x164>

000014a8 <snake_update_input>:
    14a8:	000027b7          	lui	a5,0x2
    14ac:	6e17c783          	lbu	a5,1761(a5) # 26e1 <game_over>
    14b0:	00078463          	beqz	a5,14b8 <snake_update_input+0x10>
    14b4:	00008067          	ret
    14b8:	fd010113          	addi	sp,sp,-48
    14bc:	02112623          	sw	ra,44(sp)
    14c0:	02812423          	sw	s0,40(sp)
    14c4:	02912223          	sw	s1,36(sp)
    14c8:	03212023          	sw	s2,32(sp)
    14cc:	01512a23          	sw	s5,20(sp)
    14d0:	01612823          	sw	s6,16(sp)
    14d4:	9f1ff0ef          	jal	ec4 <get_sw>
    14d8:	00050493          	mv	s1,a0
    14dc:	0014f913          	andi	s2,s1,1
    14e0:	9d5ff0ef          	jal	eb4 <get_btn>
    14e4:	00050413          	mv	s0,a0
    14e8:	00090493          	mv	s1,s2
    14ec:	0c091463          	bnez	s2,15b4 <snake_update_input+0x10c>
    14f0:	00002ab7          	lui	s5,0x2
    14f4:	00002b37          	lui	s6,0x2
    14f8:	6e0ac783          	lbu	a5,1760(s5) # 26e0 <is_paused>
    14fc:	6c9b0a23          	sb	s1,1748(s6) # 26d4 <last_pause_state>
    1500:	08079a63          	bnez	a5,1594 <snake_update_input+0xec>
    1504:	00147793          	andi	a5,s0,1
    1508:	00247713          	andi	a4,s0,2
    150c:	02079063          	bnez	a5,152c <snake_update_input+0x84>
    1510:	000027b7          	lui	a5,0x2
    1514:	eb17c683          	lbu	a3,-335(a5) # 1eb1 <dir>
    1518:	06400793          	li	a5,100
    151c:	18f68463          	beq	a3,a5,16a4 <snake_update_input+0x1fc>
    1520:	000027b7          	lui	a5,0x2
    1524:	07500693          	li	a3,117
    1528:	ead78823          	sb	a3,-336(a5) # 1eb0 <next_dir>
    152c:	02071063          	bnez	a4,154c <snake_update_input+0xa4>
    1530:	000027b7          	lui	a5,0x2
    1534:	eb17c703          	lbu	a4,-335(a5) # 1eb1 <dir>
    1538:	07500793          	li	a5,117
    153c:	16f70863          	beq	a4,a5,16ac <snake_update_input+0x204>
    1540:	000027b7          	lui	a5,0x2
    1544:	06400713          	li	a4,100
    1548:	eae78823          	sb	a4,-336(a5) # 1eb0 <next_dir>
    154c:	00447793          	andi	a5,s0,4
    1550:	02079063          	bnez	a5,1570 <snake_update_input+0xc8>
    1554:	000027b7          	lui	a5,0x2
    1558:	eb17c703          	lbu	a4,-335(a5) # 1eb1 <dir>
    155c:	07200793          	li	a5,114
    1560:	12f70c63          	beq	a4,a5,1698 <snake_update_input+0x1f0>
    1564:	000027b7          	lui	a5,0x2
    1568:	06c00713          	li	a4,108
    156c:	eae78823          	sb	a4,-336(a5) # 1eb0 <next_dir>
    1570:	00847413          	andi	s0,s0,8
    1574:	02041063          	bnez	s0,1594 <snake_update_input+0xec>
    1578:	000027b7          	lui	a5,0x2
    157c:	eb17c703          	lbu	a4,-335(a5) # 1eb1 <dir>
    1580:	06c00793          	li	a5,108
    1584:	00f70863          	beq	a4,a5,1594 <snake_update_input+0xec>
    1588:	000027b7          	lui	a5,0x2
    158c:	07200713          	li	a4,114
    1590:	eae78823          	sb	a4,-336(a5) # 1eb0 <next_dir>
    1594:	02c12083          	lw	ra,44(sp)
    1598:	02812403          	lw	s0,40(sp)
    159c:	02412483          	lw	s1,36(sp)
    15a0:	02012903          	lw	s2,32(sp)
    15a4:	01412a83          	lw	s5,20(sp)
    15a8:	01012b03          	lw	s6,16(sp)
    15ac:	03010113          	addi	sp,sp,48
    15b0:	00008067          	ret
    15b4:	00002b37          	lui	s6,0x2
    15b8:	6d4b4703          	lbu	a4,1748(s6) # 26d4 <last_pause_state>
    15bc:	00002ab7          	lui	s5,0x2
    15c0:	6e0ac783          	lbu	a5,1760(s5) # 26e0 <is_paused>
    15c4:	f2071ae3          	bnez	a4,14f8 <snake_update_input+0x50>
    15c8:	0017c793          	xori	a5,a5,1
    15cc:	6efa8023          	sb	a5,1760(s5)
    15d0:	02078063          	beqz	a5,15f0 <snake_update_input+0x148>
    15d4:	00002637          	lui	a2,0x2
    15d8:	0fc00693          	li	a3,252
    15dc:	7f860613          	addi	a2,a2,2040 # 27f8 <sev_seg_map.0+0x40>
    15e0:	07800593          	li	a1,120
    15e4:	08c00513          	li	a0,140
    15e8:	b84ff0ef          	jal	96c <vga_draw_string>
    15ec:	f0dff06f          	j	14f8 <snake_update_input+0x50>
    15f0:	00003637          	lui	a2,0x3
    15f4:	00000693          	li	a3,0
    15f8:	80060613          	addi	a2,a2,-2048 # 2800 <sev_seg_map.0+0x48>
    15fc:	07800593          	li	a1,120
    1600:	08c00513          	li	a0,140
    1604:	01712623          	sw	s7,12(sp)
    1608:	b64ff0ef          	jal	96c <vga_draw_string>
    160c:	000027b7          	lui	a5,0x2
    1610:	6d87a583          	lw	a1,1752(a5) # 26d8 <food_y>
    1614:	000027b7          	lui	a5,0x2
    1618:	6dc7a503          	lw	a0,1756(a5) # 26dc <food_x>
    161c:	0e000613          	li	a2,224
    1620:	00002bb7          	lui	s7,0x2
    1624:	f44ff0ef          	jal	d68 <vga_draw_block>
    1628:	6e8ba783          	lw	a5,1768(s7) # 26e8 <length>
    162c:	06f05263          	blez	a5,1690 <snake_update_input+0x1e8>
    1630:	01312e23          	sw	s3,28(sp)
    1634:	000029b7          	lui	s3,0x2
    1638:	eb498993          	addi	s3,s3,-332 # 1eb4 <body_x>
    163c:	4109a583          	lw	a1,1040(s3)
    1640:	0009a503          	lw	a0,0(s3)
    1644:	01f00613          	li	a2,31
    1648:	01412c23          	sw	s4,24(sp)
    164c:	f1cff0ef          	jal	d68 <vga_draw_block>
    1650:	6e8ba703          	lw	a4,1768(s7)
    1654:	00100793          	li	a5,1
    1658:	00498a13          	addi	s4,s3,4
    165c:	41498993          	addi	s3,s3,1044
    1660:	02e7d463          	bge	a5,a4,1688 <snake_update_input+0x1e0>
    1664:	0009a583          	lw	a1,0(s3)
    1668:	000a2503          	lw	a0,0(s4)
    166c:	01c00613          	li	a2,28
    1670:	00190913          	addi	s2,s2,1
    1674:	ef4ff0ef          	jal	d68 <vga_draw_block>
    1678:	6e8ba783          	lw	a5,1768(s7)
    167c:	004a0a13          	addi	s4,s4,4
    1680:	00498993          	addi	s3,s3,4
    1684:	fef940e3          	blt	s2,a5,1664 <snake_update_input+0x1bc>
    1688:	01c12983          	lw	s3,28(sp)
    168c:	01812a03          	lw	s4,24(sp)
    1690:	00c12b83          	lw	s7,12(sp)
    1694:	e65ff06f          	j	14f8 <snake_update_input+0x50>
    1698:	00847413          	andi	s0,s0,8
    169c:	ee0406e3          	beqz	s0,1588 <snake_update_input+0xe0>
    16a0:	ef5ff06f          	j	1594 <snake_update_input+0xec>
    16a4:	e8070ee3          	beqz	a4,1540 <snake_update_input+0x98>
    16a8:	ea5ff06f          	j	154c <snake_update_input+0xa4>
    16ac:	00447793          	andi	a5,s0,4
    16b0:	ea078ae3          	beqz	a5,1564 <snake_update_input+0xbc>
    16b4:	ebdff06f          	j	1570 <snake_update_input+0xc8>

000016b8 <snake_update_state>:
    16b8:	fe010113          	addi	sp,sp,-32
    16bc:	01512223          	sw	s5,4(sp)
    16c0:	00002ab7          	lui	s5,0x2
    16c4:	6e1ac783          	lbu	a5,1761(s5) # 26e1 <game_over>
    16c8:	00112e23          	sw	ra,28(sp)
    16cc:	10079663          	bnez	a5,17d8 <snake_update_state+0x120>
    16d0:	000027b7          	lui	a5,0x2
    16d4:	01612023          	sw	s6,0(sp)
    16d8:	6e07cb03          	lbu	s6,1760(a5) # 26e0 <is_paused>
    16dc:	0e0b1c63          	bnez	s6,17d4 <snake_update_state+0x11c>
    16e0:	000027b7          	lui	a5,0x2
    16e4:	eb07c783          	lbu	a5,-336(a5) # 1eb0 <next_dir>
    16e8:	00002737          	lui	a4,0x2
    16ec:	01212823          	sw	s2,16(sp)
    16f0:	00002937          	lui	s2,0x2
    16f4:	00812c23          	sw	s0,24(sp)
    16f8:	00912a23          	sw	s1,20(sp)
    16fc:	01312623          	sw	s3,12(sp)
    1700:	eb490493          	addi	s1,s2,-332 # 1eb4 <body_x>
    1704:	eaf708a3          	sb	a5,-335(a4) # 1eb1 <dir>
    1708:	01412423          	sw	s4,8(sp)
    170c:	07500713          	li	a4,117
    1710:	0004a403          	lw	s0,0(s1)
    1714:	4104a983          	lw	s3,1040(s1)
    1718:	1ce78663          	beq	a5,a4,18e4 <snake_update_state+0x22c>
    171c:	06400713          	li	a4,100
    1720:	1ce79663          	bne	a5,a4,18ec <snake_update_state+0x234>
    1724:	00198993          	addi	s3,s3,1
    1728:	f9cff0ef          	jal	ec4 <get_sw>
    172c:	08057513          	andi	a0,a0,128
    1730:	18044c63          	bltz	s0,18c8 <snake_update_state+0x210>
    1734:	01300793          	li	a5,19
    1738:	0a87d863          	bge	a5,s0,17e8 <snake_update_state+0x130>
    173c:	0a051e63          	bnez	a0,17f8 <snake_update_state+0x140>
    1740:	2209c863          	bltz	s3,1970 <snake_update_state+0x2b8>
    1744:	00c00793          	li	a5,12
    1748:	00000413          	li	s0,0
    174c:	2337c863          	blt	a5,s3,197c <snake_update_state+0x2c4>
    1750:	00002a37          	lui	s4,0x2
    1754:	6e8a2503          	lw	a0,1768(s4) # 26e8 <length>
    1758:	fff50593          	addi	a1,a0,-1
    175c:	0ab05c63          	blez	a1,1814 <snake_update_state+0x15c>
    1760:	00048793          	mv	a5,s1
    1764:	41048693          	addi	a3,s1,1040
    1768:	00000713          	li	a4,0
    176c:	00c0006f          	j	1778 <snake_update_state+0xc0>
    1770:	00468693          	addi	a3,a3,4
    1774:	08b75e63          	bge	a4,a1,1810 <snake_update_state+0x158>
    1778:	0007a603          	lw	a2,0(a5)
    177c:	00170713          	addi	a4,a4,1
    1780:	00478793          	addi	a5,a5,4
    1784:	fe8616e3          	bne	a2,s0,1770 <snake_update_state+0xb8>
    1788:	0006a603          	lw	a2,0(a3)
    178c:	ff3612e3          	bne	a2,s3,1770 <snake_update_state+0xb8>
    1790:	01812403          	lw	s0,24(sp)
    1794:	00100793          	li	a5,1
    1798:	01412483          	lw	s1,20(sp)
    179c:	01012903          	lw	s2,16(sp)
    17a0:	00c12983          	lw	s3,12(sp)
    17a4:	00812a03          	lw	s4,8(sp)
    17a8:	00012b03          	lw	s6,0(sp)
    17ac:	01c12083          	lw	ra,28(sp)
    17b0:	6efa80a3          	sb	a5,1761(s5)
    17b4:	00412a83          	lw	s5,4(sp)
    17b8:	00003637          	lui	a2,0x3
    17bc:	0e000693          	li	a3,224
    17c0:	80860613          	addi	a2,a2,-2040 # 2808 <sev_seg_map.0+0x50>
    17c4:	07800593          	li	a1,120
    17c8:	08200513          	li	a0,130
    17cc:	02010113          	addi	sp,sp,32
    17d0:	99cff06f          	j	96c <vga_draw_string>
    17d4:	00012b03          	lw	s6,0(sp)
    17d8:	01c12083          	lw	ra,28(sp)
    17dc:	00412a83          	lw	s5,4(sp)
    17e0:	02010113          	addi	sp,sp,32
    17e4:	00008067          	ret
    17e8:	1609ce63          	bltz	s3,1964 <snake_update_state+0x2ac>
    17ec:	00c00793          	li	a5,12
    17f0:	f737d0e3          	bge	a5,s3,1750 <snake_update_state+0x98>
    17f4:	18050463          	beqz	a0,197c <snake_update_state+0x2c4>
    17f8:	00002a37          	lui	s4,0x2
    17fc:	6e8a2503          	lw	a0,1768(s4) # 26e8 <length>
    1800:	00100b13          	li	s6,1
    1804:	fff50593          	addi	a1,a0,-1
    1808:	f4b04ce3          	bgtz	a1,1760 <snake_update_state+0xa8>
    180c:	f85ff06f          	j	1790 <snake_update_state+0xd8>
    1810:	f80b10e3          	bnez	s6,1790 <snake_update_state+0xd8>
    1814:	000027b7          	lui	a5,0x2
    1818:	6dc7a783          	lw	a5,1756(a5) # 26dc <food_x>
    181c:	0e878863          	beq	a5,s0,190c <snake_update_state+0x254>
    1820:	00259593          	slli	a1,a1,0x2
    1824:	00b487b3          	add	a5,s1,a1
    1828:	4107a583          	lw	a1,1040(a5)
    182c:	0007a503          	lw	a0,0(a5)
    1830:	00000613          	li	a2,0
    1834:	d34ff0ef          	jal	d68 <vga_draw_block>
    1838:	6e8a2783          	lw	a5,1768(s4)
    183c:	00100713          	li	a4,1
    1840:	02f75e63          	bge	a4,a5,187c <snake_update_state+0x1c4>
    1844:	00279793          	slli	a5,a5,0x2
    1848:	ff878693          	addi	a3,a5,-8
    184c:	41048713          	addi	a4,s1,1040
    1850:	00d487b3          	add	a5,s1,a3
    1854:	00d70733          	add	a4,a4,a3
    1858:	eb490493          	addi	s1,s2,-332
    185c:	0007a583          	lw	a1,0(a5)
    1860:	00072603          	lw	a2,0(a4)
    1864:	00078693          	mv	a3,a5
    1868:	00b7a223          	sw	a1,4(a5)
    186c:	00c72223          	sw	a2,4(a4)
    1870:	ffc78793          	addi	a5,a5,-4
    1874:	ffc70713          	addi	a4,a4,-4
    1878:	fed492e3          	bne	s1,a3,185c <snake_update_state+0x1a4>
    187c:	4144a583          	lw	a1,1044(s1)
    1880:	0044a503          	lw	a0,4(s1)
    1884:	01c00613          	li	a2,28
    1888:	0084a023          	sw	s0,0(s1)
    188c:	4134a823          	sw	s3,1040(s1)
    1890:	cd8ff0ef          	jal	d68 <vga_draw_block>
    1894:	01812403          	lw	s0,24(sp)
    1898:	4104a583          	lw	a1,1040(s1)
    189c:	0004a503          	lw	a0,0(s1)
    18a0:	01012903          	lw	s2,16(sp)
    18a4:	01412483          	lw	s1,20(sp)
    18a8:	00c12983          	lw	s3,12(sp)
    18ac:	00812a03          	lw	s4,8(sp)
    18b0:	00012b03          	lw	s6,0(sp)
    18b4:	01c12083          	lw	ra,28(sp)
    18b8:	00412a83          	lw	s5,4(sp)
    18bc:	01f00613          	li	a2,31
    18c0:	02010113          	addi	sp,sp,32
    18c4:	ca4ff06f          	j	d68 <vga_draw_block>
    18c8:	f20518e3          	bnez	a0,17f8 <snake_update_state+0x140>
    18cc:	0a09cc63          	bltz	s3,1984 <snake_update_state+0x2cc>
    18d0:	00c00793          	li	a5,12
    18d4:	0137d463          	bge	a5,s3,18dc <snake_update_state+0x224>
    18d8:	00000993          	li	s3,0
    18dc:	01300413          	li	s0,19
    18e0:	e71ff06f          	j	1750 <snake_update_state+0x98>
    18e4:	fff98993          	addi	s3,s3,-1
    18e8:	e41ff06f          	j	1728 <snake_update_state+0x70>
    18ec:	06c00713          	li	a4,108
    18f0:	00e79663          	bne	a5,a4,18fc <snake_update_state+0x244>
    18f4:	fff40413          	addi	s0,s0,-1
    18f8:	e31ff06f          	j	1728 <snake_update_state+0x70>
    18fc:	f8e78793          	addi	a5,a5,-114
    1900:	0017b793          	seqz	a5,a5
    1904:	00f40433          	add	s0,s0,a5
    1908:	e21ff06f          	j	1728 <snake_update_state+0x70>
    190c:	000027b7          	lui	a5,0x2
    1910:	6d87a783          	lw	a5,1752(a5) # 26d8 <food_y>
    1914:	f13796e3          	bne	a5,s3,1820 <snake_update_state+0x168>
    1918:	10300793          	li	a5,259
    191c:	00a7c663          	blt	a5,a0,1928 <snake_update_state+0x270>
    1920:	00150513          	addi	a0,a0,1
    1924:	6eaa2423          	sw	a0,1768(s4)
    1928:	00002737          	lui	a4,0x2
    192c:	6e472783          	lw	a5,1764(a4) # 26e4 <score>
    1930:	00178793          	addi	a5,a5,1
    1934:	6ef72223          	sw	a5,1764(a4)
    1938:	e10ff0ef          	jal	f48 <draw_score_hud>
    193c:	909ff0ef          	jal	1244 <spawn_food>
    1940:	6e8a2783          	lw	a5,1768(s4)
    1944:	00900713          	li	a4,9
    1948:	3ff00513          	li	a0,1023
    194c:	00f74863          	blt	a4,a5,195c <snake_update_state+0x2a4>
    1950:	00100513          	li	a0,1
    1954:	00f51533          	sll	a0,a0,a5
    1958:	fff50513          	addi	a0,a0,-1
    195c:	d4cff0ef          	jal	ea8 <set_leds>
    1960:	ed9ff06f          	j	1838 <snake_update_state+0x180>
    1964:	e8051ae3          	bnez	a0,17f8 <snake_update_state+0x140>
    1968:	00c00993          	li	s3,12
    196c:	de5ff06f          	j	1750 <snake_update_state+0x98>
    1970:	00000413          	li	s0,0
    1974:	00c00993          	li	s3,12
    1978:	dd9ff06f          	j	1750 <snake_update_state+0x98>
    197c:	00000993          	li	s3,0
    1980:	dd1ff06f          	j	1750 <snake_update_state+0x98>
    1984:	01300413          	li	s0,19
    1988:	00c00993          	li	s3,12
    198c:	dc5ff06f          	j	1750 <snake_update_state+0x98>

00001990 <printc>:
    1990:	04000737          	lui	a4,0x4000
    1994:	04470713          	addi	a4,a4,68 # 4000044 <_stack_end+0x3efd7a8>
    1998:	000106b7          	lui	a3,0x10
    199c:	00072783          	lw	a5,0(a4)
    19a0:	fed7eee3          	bltu	a5,a3,199c <printc+0xc>
    19a4:	040007b7          	lui	a5,0x4000
    19a8:	04a7a023          	sw	a0,64(a5) # 4000040 <_stack_end+0x3efd7a4>
    19ac:	00008067          	ret

000019b0 <print>:
    19b0:	00054603          	lbu	a2,0(a0)
    19b4:	02060863          	beqz	a2,19e4 <print+0x34>
    19b8:	04000737          	lui	a4,0x4000
    19bc:	040005b7          	lui	a1,0x4000
    19c0:	04470713          	addi	a4,a4,68 # 4000044 <_stack_end+0x3efd7a8>
    19c4:	000106b7          	lui	a3,0x10
    19c8:	04058593          	addi	a1,a1,64 # 4000040 <_stack_end+0x3efd7a4>
    19cc:	00072783          	lw	a5,0(a4)
    19d0:	fed7eee3          	bltu	a5,a3,19cc <print+0x1c>
    19d4:	00c5a023          	sw	a2,0(a1)
    19d8:	00154603          	lbu	a2,1(a0)
    19dc:	00150513          	addi	a0,a0,1
    19e0:	fe0616e3          	bnez	a2,19cc <print+0x1c>
    19e4:	00008067          	ret

000019e8 <print_dec>:
    19e8:	3b9ad737          	lui	a4,0x3b9ad
    19ec:	040006b7          	lui	a3,0x4000
    19f0:	04000337          	lui	t1,0x4000
    19f4:	00a00593          	li	a1,10
    19f8:	00000793          	li	a5,0
    19fc:	a0070713          	addi	a4,a4,-1536 # 3b9aca00 <_stack_end+0x3b8aa164>
    1a00:	04468693          	addi	a3,a3,68 # 4000044 <_stack_end+0x3efd7a8>
    1a04:	00010637          	lui	a2,0x10
    1a08:	04030313          	addi	t1,t1,64 # 4000040 <_stack_end+0x3efd7a4>
    1a0c:	00a00893          	li	a7,10
    1a10:	04e57063          	bgeu	a0,a4,1a50 <print_dec+0x68>
    1a14:	02079e63          	bnez	a5,1a50 <print_dec+0x68>
    1a18:	fff58593          	addi	a1,a1,-1
    1a1c:	02e57533          	remu	a0,a0,a4
    1a20:	03175733          	divu	a4,a4,a7
    1a24:	fe0596e3          	bnez	a1,1a10 <print_dec+0x28>
    1a28:	02079263          	bnez	a5,1a4c <print_dec+0x64>
    1a2c:	04000737          	lui	a4,0x4000
    1a30:	04470713          	addi	a4,a4,68 # 4000044 <_stack_end+0x3efd7a8>
    1a34:	000106b7          	lui	a3,0x10
    1a38:	00072783          	lw	a5,0(a4)
    1a3c:	fed7eee3          	bltu	a5,a3,1a38 <print_dec+0x50>
    1a40:	040007b7          	lui	a5,0x4000
    1a44:	03000713          	li	a4,48
    1a48:	04e7a023          	sw	a4,64(a5) # 4000040 <_stack_end+0x3efd7a4>
    1a4c:	00008067          	ret
    1a50:	02e55833          	divu	a6,a0,a4
    1a54:	03080813          	addi	a6,a6,48
    1a58:	0ff87813          	zext.b	a6,a6
    1a5c:	0006a783          	lw	a5,0(a3) # 10000 <sev_seg_map.0+0xd848>
    1a60:	fec7eee3          	bltu	a5,a2,1a5c <print_dec+0x74>
    1a64:	01032023          	sw	a6,0(t1)
    1a68:	00100793          	li	a5,1
    1a6c:	fadff06f          	j	1a18 <print_dec+0x30>

00001a70 <print_hex32>:
    1a70:	04000737          	lui	a4,0x4000
    1a74:	04470713          	addi	a4,a4,68 # 4000044 <_stack_end+0x3efd7a8>
    1a78:	000106b7          	lui	a3,0x10
    1a7c:	00072783          	lw	a5,0(a4)
    1a80:	fed7eee3          	bltu	a5,a3,1a7c <print_hex32+0xc>
    1a84:	03000693          	li	a3,48
    1a88:	040007b7          	lui	a5,0x4000
    1a8c:	04000737          	lui	a4,0x4000
    1a90:	04d7a023          	sw	a3,64(a5) # 4000040 <_stack_end+0x3efd7a4>
    1a94:	04470713          	addi	a4,a4,68 # 4000044 <_stack_end+0x3efd7a8>
    1a98:	000106b7          	lui	a3,0x10
    1a9c:	00072783          	lw	a5,0(a4)
    1aa0:	fed7eee3          	bltu	a5,a3,1a9c <print_hex32+0x2c>
    1aa4:	04000837          	lui	a6,0x4000
    1aa8:	04080813          	addi	a6,a6,64 # 4000040 <_stack_end+0x3efd7a4>
    1aac:	04000737          	lui	a4,0x4000
    1ab0:	07800793          	li	a5,120
    1ab4:	00f82023          	sw	a5,0(a6)
    1ab8:	01c00613          	li	a2,28
    1abc:	00900313          	li	t1,9
    1ac0:	04470713          	addi	a4,a4,68 # 4000044 <_stack_end+0x3efd7a8>
    1ac4:	000106b7          	lui	a3,0x10
    1ac8:	ffc00893          	li	a7,-4
    1acc:	00c557b3          	srl	a5,a0,a2
    1ad0:	00f7f793          	andi	a5,a5,15
    1ad4:	03778593          	addi	a1,a5,55
    1ad8:	00f36463          	bltu	t1,a5,1ae0 <print_hex32+0x70>
    1adc:	03078593          	addi	a1,a5,48
    1ae0:	00072783          	lw	a5,0(a4)
    1ae4:	fed7eee3          	bltu	a5,a3,1ae0 <print_hex32+0x70>
    1ae8:	00b82023          	sw	a1,0(a6)
    1aec:	ffc60613          	addi	a2,a2,-4 # fffc <sev_seg_map.0+0xd844>
    1af0:	fd161ee3          	bne	a2,a7,1acc <print_hex32+0x5c>
    1af4:	00008067          	ret

00001af8 <handle_exception>:
    1af8:	00200793          	li	a5,2
    1afc:	18f80863          	beq	a6,a5,1c8c <handle_exception+0x194>
    1b00:	00b00793          	li	a5,11
    1b04:	12f80063          	beq	a6,a5,1c24 <handle_exception+0x12c>
    1b08:	04000737          	lui	a4,0x4000
    1b0c:	14081463          	bnez	a6,1c54 <handle_exception+0x15c>
    1b10:	04000837          	lui	a6,0x4000
    1b14:	00003637          	lui	a2,0x3
    1b18:	81460613          	addi	a2,a2,-2028 # 2814 <sev_seg_map.0+0x5c>
    1b1c:	00a00593          	li	a1,10
    1b20:	04470713          	addi	a4,a4,68 # 4000044 <_stack_end+0x3efd7a8>
    1b24:	000106b7          	lui	a3,0x10
    1b28:	04080813          	addi	a6,a6,64 # 4000040 <_stack_end+0x3efd7a4>
    1b2c:	00072783          	lw	a5,0(a4)
    1b30:	fed7eee3          	bltu	a5,a3,1b2c <handle_exception+0x34>
    1b34:	00b82023          	sw	a1,0(a6)
    1b38:	00164583          	lbu	a1,1(a2)
    1b3c:	00160613          	addi	a2,a2,1
    1b40:	fe0596e3          	bnez	a1,1b2c <handle_exception+0x34>
    1b44:	04000737          	lui	a4,0x4000
    1b48:	04000837          	lui	a6,0x4000
    1b4c:	00003637          	lui	a2,0x3
    1b50:	88860613          	addi	a2,a2,-1912 # 2888 <sev_seg_map.0+0xd0>
    1b54:	04500593          	li	a1,69
    1b58:	04470713          	addi	a4,a4,68 # 4000044 <_stack_end+0x3efd7a8>
    1b5c:	000106b7          	lui	a3,0x10
    1b60:	04080813          	addi	a6,a6,64 # 4000040 <_stack_end+0x3efd7a4>
    1b64:	00072783          	lw	a5,0(a4)
    1b68:	fed7eee3          	bltu	a5,a3,1b64 <handle_exception+0x6c>
    1b6c:	00b82023          	sw	a1,0(a6)
    1b70:	00164583          	lbu	a1,1(a2)
    1b74:	00160613          	addi	a2,a2,1
    1b78:	fe0596e3          	bnez	a1,1b64 <handle_exception+0x6c>
    1b7c:	04000737          	lui	a4,0x4000
    1b80:	04470713          	addi	a4,a4,68 # 4000044 <_stack_end+0x3efd7a8>
    1b84:	000106b7          	lui	a3,0x10
    1b88:	00072783          	lw	a5,0(a4)
    1b8c:	fed7eee3          	bltu	a5,a3,1b88 <handle_exception+0x90>
    1b90:	03000693          	li	a3,48
    1b94:	040007b7          	lui	a5,0x4000
    1b98:	04000737          	lui	a4,0x4000
    1b9c:	04d7a023          	sw	a3,64(a5) # 4000040 <_stack_end+0x3efd7a4>
    1ba0:	04470713          	addi	a4,a4,68 # 4000044 <_stack_end+0x3efd7a8>
    1ba4:	000106b7          	lui	a3,0x10
    1ba8:	00072783          	lw	a5,0(a4)
    1bac:	fed7eee3          	bltu	a5,a3,1ba8 <handle_exception+0xb0>
    1bb0:	04000837          	lui	a6,0x4000
    1bb4:	04080813          	addi	a6,a6,64 # 4000040 <_stack_end+0x3efd7a4>
    1bb8:	04000737          	lui	a4,0x4000
    1bbc:	07800793          	li	a5,120
    1bc0:	00f82023          	sw	a5,0(a6)
    1bc4:	01c00613          	li	a2,28
    1bc8:	00900313          	li	t1,9
    1bcc:	04470713          	addi	a4,a4,68 # 4000044 <_stack_end+0x3efd7a8>
    1bd0:	000106b7          	lui	a3,0x10
    1bd4:	ffc00893          	li	a7,-4
    1bd8:	00c557b3          	srl	a5,a0,a2
    1bdc:	00f7f793          	andi	a5,a5,15
    1be0:	03778593          	addi	a1,a5,55
    1be4:	00f36463          	bltu	t1,a5,1bec <handle_exception+0xf4>
    1be8:	03078593          	addi	a1,a5,48
    1bec:	00072783          	lw	a5,0(a4)
    1bf0:	fed7eee3          	bltu	a5,a3,1bec <handle_exception+0xf4>
    1bf4:	00b82023          	sw	a1,0(a6)
    1bf8:	ffc60613          	addi	a2,a2,-4
    1bfc:	fd161ee3          	bne	a2,a7,1bd8 <handle_exception+0xe0>
    1c00:	04000737          	lui	a4,0x4000
    1c04:	04470713          	addi	a4,a4,68 # 4000044 <_stack_end+0x3efd7a8>
    1c08:	000106b7          	lui	a3,0x10
    1c0c:	00072783          	lw	a5,0(a4)
    1c10:	fed7eee3          	bltu	a5,a3,1c0c <handle_exception+0x114>
    1c14:	040007b7          	lui	a5,0x4000
    1c18:	00a00713          	li	a4,10
    1c1c:	04e7a023          	sw	a4,64(a5) # 4000040 <_stack_end+0x3efd7a4>
    1c20:	0000006f          	j	1c20 <handle_exception+0x128>
    1c24:	00400793          	li	a5,4
    1c28:	0af88063          	beq	a7,a5,1cc8 <handle_exception+0x1d0>
    1c2c:	0d089a63          	bne	a7,a6,1d00 <handle_exception+0x208>
    1c30:	04000737          	lui	a4,0x4000
    1c34:	04470713          	addi	a4,a4,68 # 4000044 <_stack_end+0x3efd7a8>
    1c38:	000106b7          	lui	a3,0x10
    1c3c:	00072783          	lw	a5,0(a4)
    1c40:	fed7eee3          	bltu	a5,a3,1c3c <handle_exception+0x144>
    1c44:	040007b7          	lui	a5,0x4000
    1c48:	0ff57513          	zext.b	a0,a0
    1c4c:	04a7a023          	sw	a0,64(a5) # 4000040 <_stack_end+0x3efd7a4>
    1c50:	00008067          	ret
    1c54:	04000837          	lui	a6,0x4000
    1c58:	00003637          	lui	a2,0x3
    1c5c:	86860613          	addi	a2,a2,-1944 # 2868 <sev_seg_map.0+0xb0>
    1c60:	00a00593          	li	a1,10
    1c64:	04470713          	addi	a4,a4,68
    1c68:	000106b7          	lui	a3,0x10
    1c6c:	04080813          	addi	a6,a6,64 # 4000040 <_stack_end+0x3efd7a4>
    1c70:	00072783          	lw	a5,0(a4)
    1c74:	fed7eee3          	bltu	a5,a3,1c70 <handle_exception+0x178>
    1c78:	00b82023          	sw	a1,0(a6)
    1c7c:	00164583          	lbu	a1,1(a2)
    1c80:	00160613          	addi	a2,a2,1
    1c84:	fe0596e3          	bnez	a1,1c70 <handle_exception+0x178>
    1c88:	ebdff06f          	j	1b44 <handle_exception+0x4c>
    1c8c:	04000737          	lui	a4,0x4000
    1c90:	04000837          	lui	a6,0x4000
    1c94:	00003637          	lui	a2,0x3
    1c98:	84460613          	addi	a2,a2,-1980 # 2844 <sev_seg_map.0+0x8c>
    1c9c:	00a00593          	li	a1,10
    1ca0:	04470713          	addi	a4,a4,68 # 4000044 <_stack_end+0x3efd7a8>
    1ca4:	000106b7          	lui	a3,0x10
    1ca8:	04080813          	addi	a6,a6,64 # 4000040 <_stack_end+0x3efd7a4>
    1cac:	00072783          	lw	a5,0(a4)
    1cb0:	fed7eee3          	bltu	a5,a3,1cac <handle_exception+0x1b4>
    1cb4:	00b82023          	sw	a1,0(a6)
    1cb8:	00164583          	lbu	a1,1(a2)
    1cbc:	00160613          	addi	a2,a2,1
    1cc0:	fe0596e3          	bnez	a1,1cac <handle_exception+0x1b4>
    1cc4:	e81ff06f          	j	1b44 <handle_exception+0x4c>
    1cc8:	00054603          	lbu	a2,0(a0)
    1ccc:	02060a63          	beqz	a2,1d00 <handle_exception+0x208>
    1cd0:	04000737          	lui	a4,0x4000
    1cd4:	040005b7          	lui	a1,0x4000
    1cd8:	04470713          	addi	a4,a4,68 # 4000044 <_stack_end+0x3efd7a8>
    1cdc:	000106b7          	lui	a3,0x10
    1ce0:	04058593          	addi	a1,a1,64 # 4000040 <_stack_end+0x3efd7a4>
    1ce4:	00072783          	lw	a5,0(a4)
    1ce8:	fed7eee3          	bltu	a5,a3,1ce4 <handle_exception+0x1ec>
    1cec:	00c5a023          	sw	a2,0(a1)
    1cf0:	00154603          	lbu	a2,1(a0)
    1cf4:	00150513          	addi	a0,a0,1
    1cf8:	fe0616e3          	bnez	a2,1ce4 <handle_exception+0x1ec>
    1cfc:	00008067          	ret
    1d00:	00008067          	ret

00001d04 <nextprime>:
    1d04:	00200713          	li	a4,2
    1d08:	00050793          	mv	a5,a0
    1d0c:	02a74063          	blt	a4,a0,1d2c <nextprime+0x28>
    1d10:	00100513          	li	a0,1
    1d14:	00f05a63          	blez	a5,1d28 <nextprime+0x24>
    1d18:	fff78793          	addi	a5,a5,-1
    1d1c:	00f037b3          	snez	a5,a5
    1d20:	00278513          	addi	a0,a5,2
    1d24:	00008067          	ret
    1d28:	00008067          	ret
    1d2c:	00150793          	addi	a5,a0,1
    1d30:	0017e513          	ori	a0,a5,1
    1d34:	00300613          	li	a2,3
    1d38:	02c567b3          	rem	a5,a0,a2
    1d3c:	40155693          	srai	a3,a0,0x1
    1d40:	02078263          	beqz	a5,1d64 <nextprime+0x60>
    1d44:	00268693          	addi	a3,a3,2 # 10002 <sev_seg_map.0+0xd84a>
    1d48:	00300793          	li	a5,3
    1d4c:	00c0006f          	j	1d58 <nextprime+0x54>
    1d50:	02f56733          	rem	a4,a0,a5
    1d54:	00070863          	beqz	a4,1d64 <nextprime+0x60>
    1d58:	00178793          	addi	a5,a5,1
    1d5c:	fef69ae3          	bne	a3,a5,1d50 <nextprime+0x4c>
    1d60:	00008067          	ret
    1d64:	00250513          	addi	a0,a0,2
    1d68:	fd1ff06f          	j	1d38 <nextprime+0x34>

00001d6c <handle_interrupt>:
    1d6c:	00008067          	ret

00001d70 <main>:
    1d70:	ff010113          	addi	sp,sp,-16
    1d74:	00812423          	sw	s0,8(sp)
    1d78:	00000513          	li	a0,0
    1d7c:	00001437          	lui	s0,0x1
    1d80:	00112623          	sw	ra,12(sp)
    1d84:	fa040413          	addi	s0,s0,-96 # fa0 <draw_score_hud+0x58>
    1d88:	920ff0ef          	jal	ea8 <set_leds>
    1d8c:	d90ff0ef          	jal	131c <snake_init>
    1d90:	934ff0ef          	jal	ec4 <get_sw>
    1d94:	20057513          	andi	a0,a0,512
    1d98:	02051663          	bnez	a0,1dc4 <main+0x54>
    1d9c:	f0cff0ef          	jal	14a8 <snake_update_input>
    1da0:	919ff0ef          	jal	16b8 <snake_update_state>
    1da4:	920ff0ef          	jal	ec4 <get_sw>
    1da8:	10057513          	andi	a0,a0,256
    1dac:	02050e63          	beqz	a0,1de8 <main+0x78>
    1db0:	09600513          	li	a0,150
    1db4:	d24fe0ef          	jal	2d8 <delay>
    1db8:	90cff0ef          	jal	ec4 <get_sw>
    1dbc:	20057513          	andi	a0,a0,512
    1dc0:	fc050ee3          	beqz	a0,1d9c <main+0x2c>
    1dc4:	d58ff0ef          	jal	131c <snake_init>
    1dc8:	8fcff0ef          	jal	ec4 <get_sw>
    1dcc:	20057513          	andi	a0,a0,512
    1dd0:	fe051ce3          	bnez	a0,1dc8 <main+0x58>
    1dd4:	ed4ff0ef          	jal	14a8 <snake_update_input>
    1dd8:	8e1ff0ef          	jal	16b8 <snake_update_state>
    1ddc:	8e8ff0ef          	jal	ec4 <get_sw>
    1de0:	10057513          	andi	a0,a0,256
    1de4:	fc0516e3          	bnez	a0,1db0 <main+0x40>
    1de8:	00040513          	mv	a0,s0
    1dec:	cecfe0ef          	jal	2d8 <delay>
    1df0:	fa1ff06f          	j	1d90 <main+0x20>

Disassembly of section .data:

00001df4 <welcome_msg>:
    1df4:	3d3d                	.insn	2, 0x3d3d
    1df6:	3d3d                	.insn	2, 0x3d3d
    1df8:	3d3d                	.insn	2, 0x3d3d
    1dfa:	3d3d                	.insn	2, 0x3d3d
    1dfc:	3d3d                	.insn	2, 0x3d3d
    1dfe:	3d3d                	.insn	2, 0x3d3d
    1e00:	3d3d                	.insn	2, 0x3d3d
    1e02:	3d3d                	.insn	2, 0x3d3d
    1e04:	3d3d                	.insn	2, 0x3d3d
    1e06:	3d3d                	.insn	2, 0x3d3d
    1e08:	3d3d                	.insn	2, 0x3d3d
    1e0a:	3d3d                	.insn	2, 0x3d3d
    1e0c:	3d3d                	.insn	2, 0x3d3d
    1e0e:	3d3d                	.insn	2, 0x3d3d
    1e10:	3d3d                	.insn	2, 0x3d3d
    1e12:	3d3d                	.insn	2, 0x3d3d
    1e14:	3d3d                	.insn	2, 0x3d3d
    1e16:	3d3d                	.insn	2, 0x3d3d
    1e18:	3d3d                	.insn	2, 0x3d3d
    1e1a:	3d3d                	.insn	2, 0x3d3d
    1e1c:	3d3d                	.insn	2, 0x3d3d
    1e1e:	3d3d                	.insn	2, 0x3d3d
    1e20:	3d3d                	.insn	2, 0x3d3d
    1e22:	3d3d                	.insn	2, 0x3d3d
    1e24:	3d0a                	.insn	2, 0x3d0a
    1e26:	3d3d                	.insn	2, 0x3d3d
    1e28:	3d3d                	.insn	2, 0x3d3d
    1e2a:	5220                	.insn	2, 0x5220
    1e2c:	5349                	.insn	2, 0x5349
    1e2e:	20562d43          	.insn	4, 0x20562d43
    1e32:	6f42                	.insn	2, 0x6f42
    1e34:	552d746f          	jal	s0,d9386 <sev_seg_map.0+0xd6bce>
    1e38:	2070                	.insn	2, 0x2070
    1e3a:	7250                	.insn	2, 0x7250
    1e3c:	7365636f          	jal	t1,58572 <sev_seg_map.0+0x55dba>
    1e40:	6f4e2073          	csrs	0x6f4,t3
    1e44:	6f432077          	.insn	4, 0x6f432077
    1e48:	706d                	.insn	2, 0x706d
    1e4a:	656c                	.insn	2, 0x656c
    1e4c:	6574                	.insn	2, 0x6574
    1e4e:	3d20                	.insn	2, 0x3d20
    1e50:	3d3d                	.insn	2, 0x3d3d
    1e52:	3d3d                	.insn	2, 0x3d3d
    1e54:	0a3d                	.insn	2, 0x0a3d
    1e56:	3d3d                	.insn	2, 0x3d3d
    1e58:	3d3d                	.insn	2, 0x3d3d
    1e5a:	3d3d                	.insn	2, 0x3d3d
    1e5c:	3d3d                	.insn	2, 0x3d3d
    1e5e:	3d3d                	.insn	2, 0x3d3d
    1e60:	3d3d                	.insn	2, 0x3d3d
    1e62:	3d3d                	.insn	2, 0x3d3d
    1e64:	3d3d                	.insn	2, 0x3d3d
    1e66:	3d3d                	.insn	2, 0x3d3d
    1e68:	3d3d                	.insn	2, 0x3d3d
    1e6a:	3d3d                	.insn	2, 0x3d3d
    1e6c:	3d3d                	.insn	2, 0x3d3d
    1e6e:	3d3d                	.insn	2, 0x3d3d
    1e70:	3d3d                	.insn	2, 0x3d3d
    1e72:	3d3d                	.insn	2, 0x3d3d
    1e74:	3d3d                	.insn	2, 0x3d3d
    1e76:	3d3d                	.insn	2, 0x3d3d
    1e78:	3d3d                	.insn	2, 0x3d3d
    1e7a:	3d3d                	.insn	2, 0x3d3d
    1e7c:	3d3d                	.insn	2, 0x3d3d
    1e7e:	3d3d                	.insn	2, 0x3d3d
    1e80:	3d3d                	.insn	2, 0x3d3d
    1e82:	3d3d                	.insn	2, 0x3d3d
    1e84:	3d3d                	.insn	2, 0x3d3d
    1e86:	000a                	.insn	2, 0x000a

00001e88 <mytime>:
    1e88:	00005957          	.insn	4, 0x5957

00001e8c <timstr>:
    1e8c:	6574                	.insn	2, 0x6574
    1e8e:	7478                	.insn	2, 0x7478
    1e90:	6d20                	.insn	2, 0x6d20
    1e92:	2065726f          	jal	tp,59098 <sev_seg_map.0+0x568e0>
    1e96:	6574                	.insn	2, 0x6574
    1e98:	7478                	.insn	2, 0x7478
    1e9a:	6c20                	.insn	2, 0x6c20
    1e9c:	2073746f          	jal	s0,398a2 <sev_seg_map.0+0x370ea>
    1ea0:	7420666f          	jal	a2,85e2 <sev_seg_map.0+0x5e2a>
    1ea4:	7865                	.insn	2, 0x7865
    1ea6:	0074                	.insn	2, 0x0074
    1ea8:	0000                	.insn	2, 0x
	...

00001eac <rng_seed>:
    1eac:	0001                	.insn	2, 0x0001
	...

00001eb0 <next_dir>:
    1eb0:	                	.insn	2, 0x7272

00001eb1 <dir>:
    1eb1:	Address 0x1eb1 is out of bounds.


Disassembly of section .rodata:

000026ec <CSWTCH.6>:
    26ec:	1e1e1e0b          	.insn	4, 0x1e1e1e0b
    26f0:	1e1e                	.insn	2, 0x1e1e
    26f2:	1e1e                	.insn	2, 0x1e1e
    26f4:	1e1e                	.insn	2, 0x1e1e
    26f6:	1e1e                	.insn	2, 0x1e1e
    26f8:	1e0a                	.insn	2, 0x1e0a
    26fa:	1e1e                	.insn	2, 0x1e1e
    26fc:	1e1e                	.insn	2, 0x1e1e
    26fe:	151e                	.insn	2, 0x151e
    2700:	101e                	.insn	2, 0x101e
    2702:	1612                	.insn	2, 0x1612
    2704:	141e                	.insn	2, 0x141e
    2706:	1311                	.insn	2, 0x1311
    2708:	1b1e                	.insn	2, 0x1b1e
    270a:	0f1c                	.insn	2, 0x0f1c
    270c:	171a                	.insn	2, 0x171a
    270e:	1e0d                	.insn	2, 0x1e0d
    2710:	0e18                	.insn	2, 0x0e18
    2712:	1e19                	.insn	2, 0x1e19
    2714:	1e0c                	.insn	2, 0x1e0c
    2716:	1e1e                	.insn	2, 0x1e1e
    2718:	1e1e                	.insn	2, 0x1e1e
    271a:	001d                	.insn	2, 0x001d

0000271c <font_5x7>:
    271c:	513e                	.insn	2, 0x513e
    271e:	4549                	.insn	2, 0x4549
    2720:	003e                	.insn	2, 0x003e
    2722:	7f42                	.insn	2, 0x7f42
    2724:	0040                	.insn	2, 0x0040
    2726:	6142                	.insn	2, 0x6142
    2728:	4951                	.insn	2, 0x4951
    272a:	2146                	.insn	2, 0x2146
    272c:	4541                	.insn	2, 0x4541
    272e:	1418314b          	.insn	4, 0x1418314b
    2732:	7f12                	.insn	2, 0x7f12
    2734:	2710                	.insn	2, 0x2710
    2736:	4545                	.insn	2, 0x4545
    2738:	3945                	.insn	2, 0x3945
    273a:	4a3c                	.insn	2, 0x4a3c
    273c:	4949                	.insn	2, 0x4949
    273e:	0130                	.insn	2, 0x0130
    2740:	0971                	.insn	2, 0x0971
    2742:	0305                	.insn	2, 0x0305
    2744:	4936                	.insn	2, 0x4936
    2746:	4949                	.insn	2, 0x4949
    2748:	0636                	.insn	2, 0x0636
    274a:	4949                	.insn	2, 0x4949
    274c:	1e29                	.insn	2, 0x1e29
    274e:	0000                	.insn	2, 0x
    2750:	0060                	.insn	2, 0x0060
    2752:	0000                	.insn	2, 0x
    2754:	6060                	.insn	2, 0x6060
    2756:	0000                	.insn	2, 0x
    2758:	201f 2040 7f1f      	.insn	6, 0x7f1f2040201f
    275e:	0909                	.insn	2, 0x0909
    2760:	0609                	.insn	2, 0x0609
    2762:	4932                	.insn	2, 0x4932
    2764:	4179                	.insn	2, 0x4179
    2766:	7f3e                	.insn	2, 0x7f3e
    2768:	0c02                	.insn	2, 0x0c02
    276a:	7f02                	.insn	2, 0x7f02
    276c:	413e                	.insn	2, 0x413e
    276e:	4141                	.insn	2, 0x4141
    2770:	7f22                	.insn	2, 0x7f22
    2772:	0808                	.insn	2, 0x0808
    2774:	7f08                	.insn	2, 0x7f08
    2776:	413e                	.insn	2, 0x413e
    2778:	2241                	.insn	2, 0x2241
    277a:	001c                	.insn	2, 0x001c
    277c:	7f41                	.insn	2, 0x7f41
    277e:	0041                	.insn	2, 0x0041
    2780:	097f 2919 7f46 0101 	.insn	10, 0x7f0101017f462919097f
    2788:	7f01 
    278a:	097f 0909 7f7f 4141 	.insn	10, 0x3e4141417f7f0909097f
    2792:	3e41 
    2794:	087f 0808 0107 7f01 	.insn	10, 0x01017f0101070808087f
    279c:	0101 
    279e:	047f 1008 7f7f 4040 	.insn	10, 0x7f4040407f7f1008047f
    27a6:	7f40 
    27a8:	1010100f          	.insn	4, 0x1010100f
    27ac:	0402010f          	.insn	4, 0x0402010f
    27b0:	1008                	.insn	2, 0x1008
    27b2:	0000                	.insn	2, 0x
    27b4:	0000                	.insn	2, 0x
	...

000027b8 <sev_seg_map.0>:
    27b8:	0040                	.insn	2, 0x0040
    27ba:	0000                	.insn	2, 0x
    27bc:	0079                	.insn	2, 0x0079
    27be:	0000                	.insn	2, 0x
    27c0:	0024                	.insn	2, 0x0024
    27c2:	0000                	.insn	2, 0x
    27c4:	0030                	.insn	2, 0x0030
    27c6:	0000                	.insn	2, 0x
    27c8:	0019                	.insn	2, 0x0019
    27ca:	0000                	.insn	2, 0x
    27cc:	0012                	.insn	2, 0x0012
    27ce:	0000                	.insn	2, 0x
    27d0:	0002                	.insn	2, 0x0002
    27d2:	0000                	.insn	2, 0x
    27d4:	0078                	.insn	2, 0x0078
    27d6:	0000                	.insn	2, 0x
    27d8:	0000                	.insn	2, 0x
    27da:	0000                	.insn	2, 0x
    27dc:	0010                	.insn	2, 0x0010
	...

Disassembly of section .rodata.str1.4:

000027e0 <.rodata.str1.4>:
    27e0:	2020                	.insn	2, 0x2020
    27e2:	2020                	.insn	2, 0x2020
    27e4:	0020                	.insn	2, 0x0020
    27e6:	0000                	.insn	2, 0x
    27e8:	524f4353          	.insn	4, 0x524f4353
    27ec:	3a45                	.insn	2, 0x3a45
    27ee:	0000                	.insn	2, 0x
    27f0:	4b414e53          	.insn	4, 0x4b414e53
    27f4:	0045                	.insn	2, 0x0045
    27f6:	0000                	.insn	2, 0x
    27f8:	4150                	.insn	2, 0x4150
    27fa:	5355                	.insn	2, 0x5355
    27fc:	4445                	.insn	2, 0x4445
    27fe:	0000                	.insn	2, 0x
    2800:	2020                	.insn	2, 0x2020
    2802:	2020                	.insn	2, 0x2020
    2804:	2020                	.insn	2, 0x2020
    2806:	0000                	.insn	2, 0x
    2808:	454d4147          	.insn	4, 0x454d4147
    280c:	4f20                	.insn	2, 0x4f20
    280e:	4556                	.insn	2, 0x4556
    2810:	0052                	.insn	2, 0x0052
    2812:	0000                	.insn	2, 0x
    2814:	5b0a                	.insn	2, 0x5b0a
    2816:	5845                	.insn	2, 0x5845
    2818:	54504543          	.insn	4, 0x54504543
    281c:	4f49                	.insn	2, 0x4f49
    281e:	5d4e                	.insn	2, 0x5d4e
    2820:	4920                	.insn	2, 0x4920
    2822:	736e                	.insn	2, 0x736e
    2824:	7274                	.insn	2, 0x7274
    2826:	6375                	.insn	2, 0x6375
    2828:	6974                	.insn	2, 0x6974
    282a:	61206e6f          	jal	t3,8e3c <sev_seg_map.0+0x6684>
    282e:	6464                	.insn	2, 0x6464
    2830:	6572                	.insn	2, 0x6572
    2832:	6d207373          	csrrci	t1,0x6d2,0
    2836:	7369                	.insn	2, 0x7369
    2838:	6c61                	.insn	2, 0x6c61
    283a:	6769                	.insn	2, 0x6769
    283c:	6d6e                	.insn	2, 0x6d6e
    283e:	6e65                	.insn	2, 0x6e65
    2840:	2e74                	.insn	2, 0x2e74
    2842:	0020                	.insn	2, 0x0020
    2844:	5b0a                	.insn	2, 0x5b0a
    2846:	5845                	.insn	2, 0x5845
    2848:	54504543          	.insn	4, 0x54504543
    284c:	4f49                	.insn	2, 0x4f49
    284e:	5d4e                	.insn	2, 0x5d4e
    2850:	4920                	.insn	2, 0x4920
    2852:	6c6c                	.insn	2, 0x6c6c
    2854:	6765                	.insn	2, 0x6765
    2856:	6c61                	.insn	2, 0x6c61
    2858:	6920                	.insn	2, 0x6920
    285a:	736e                	.insn	2, 0x736e
    285c:	7274                	.insn	2, 0x7274
    285e:	6375                	.insn	2, 0x6375
    2860:	6974                	.insn	2, 0x6974
    2862:	202e6e6f          	jal	t3,e8a64 <sev_seg_map.0+0xe62ac>
    2866:	0000                	.insn	2, 0x
    2868:	5b0a                	.insn	2, 0x5b0a
    286a:	5845                	.insn	2, 0x5845
    286c:	54504543          	.insn	4, 0x54504543
    2870:	4f49                	.insn	2, 0x4f49
    2872:	5d4e                	.insn	2, 0x5d4e
    2874:	5520                	.insn	2, 0x5520
    2876:	6b6e                	.insn	2, 0x6b6e
    2878:	6f6e                	.insn	2, 0x6f6e
    287a:	65206e77          	.insn	4, 0x65206e77
    287e:	7272                	.insn	2, 0x7272
    2880:	202e726f          	jal	tp,e9a82 <sev_seg_map.0+0xe72ca>
    2884:	0000                	.insn	2, 0x
    2886:	0000                	.insn	2, 0x
    2888:	7845                	.insn	2, 0x7845
    288a:	74706563          	bltu	zero,t2,2fd4 <sev_seg_map.0+0x81c>
    288e:	6f69                	.insn	2, 0x6f69
    2890:	206e                	.insn	2, 0x206e
    2892:	6441                	.insn	2, 0x6441
    2894:	7264                	.insn	2, 0x7264
    2896:	7365                	.insn	2, 0x7365
    2898:	00203a73          	csrrc	s4,frm,zero

Disassembly of section .comment:

00000000 <.comment>:
   0:	3a434347          	.insn	4, 0x3a434347
   4:	2820                	.insn	2, 0x2820
   6:	2029                	.insn	2, 0x2029
   8:	3331                	.insn	2, 0x3331
   a:	322e                	.insn	2, 0x322e
   c:	302e                	.insn	2, 0x302e
	...

Disassembly of section .riscv.attributes:

00000000 <.riscv.attributes>:
   0:	3641                	.insn	2, 0x3641
   2:	0000                	.insn	2, 0x
   4:	7200                	.insn	2, 0x7200
   6:	7369                	.insn	2, 0x7369
   8:	01007663          	bgeu	zero,a6,14 <_isr_routine+0xc>
   c:	002c                	.insn	2, 0x002c
   e:	0000                	.insn	2, 0x
  10:	1004                	.insn	2, 0x1004
  12:	7205                	.insn	2, 0x7205
  14:	3376                	.insn	2, 0x3376
  16:	6932                	.insn	2, 0x6932
  18:	7032                	.insn	2, 0x7032
  1a:	5f31                	.insn	2, 0x5f31
  1c:	326d                	.insn	2, 0x326d
  1e:	3070                	.insn	2, 0x3070
  20:	7a5f 6369 7273      	.insn	6, 0x727363697a5f
  26:	7032                	.insn	2, 0x7032
  28:	5f30                	.insn	2, 0x5f30
  2a:	6d7a                	.insn	2, 0x6d7a
  2c:	756d                	.insn	2, 0x756d
  2e:	316c                	.insn	2, 0x316c
  30:	3070                	.insn	2, 0x3070
  32:	0800                	.insn	2, 0x0800
  34:	0a01                	.insn	2, 0x0a01
  36:	Address 0x36 is out of bounds.

