
main.elf:     file format elf32-littleriscv


Disassembly of section .text:

00000000 <_isr_handler>:
       0:	0080006f          	j	8 <_isr_routine>
       4:	1440006f          	j	148 <_start>

00000008 <_isr_routine>:
       8:	f8010113          	addi	sp,sp,-128
       c:	00112023          	sw	ra,0(sp)
      10:	00312423          	sw	gp,8(sp)
      14:	00412623          	sw	tp,12(sp)
      18:	00512823          	sw	t0,16(sp)
      1c:	00612a23          	sw	t1,20(sp)
      20:	00712c23          	sw	t2,24(sp)
      24:	00812e23          	sw	s0,28(sp)
      28:	02912023          	sw	s1,32(sp)
      2c:	02a12223          	sw	a0,36(sp)
      30:	02b12423          	sw	a1,40(sp)
      34:	02c12623          	sw	a2,44(sp)
      38:	02d12823          	sw	a3,48(sp)
      3c:	02e12a23          	sw	a4,52(sp)
      40:	02f12c23          	sw	a5,56(sp)
      44:	03012e23          	sw	a6,60(sp)
      48:	05112023          	sw	a7,64(sp)
      4c:	05212223          	sw	s2,68(sp)
      50:	05312423          	sw	s3,72(sp)
      54:	05412623          	sw	s4,76(sp)
      58:	05512823          	sw	s5,80(sp)
      5c:	05612a23          	sw	s6,84(sp)
      60:	05712c23          	sw	s7,88(sp)
      64:	05812e23          	sw	s8,92(sp)
      68:	07912023          	sw	s9,96(sp)
      6c:	07a12223          	sw	s10,100(sp)
      70:	07b12423          	sw	s11,104(sp)
      74:	07c12623          	sw	t3,108(sp)
      78:	07d12823          	sw	t4,112(sp)
      7c:	07e12a23          	sw	t5,116(sp)
      80:	07f12c23          	sw	t6,120(sp)
      84:	342022f3          	csrr	t0,mcause
      88:	80000337          	lui	t1,0x80000
      8c:	02536463          	bltu	t1,t0,b4 <external_irq>
      90:	00028833          	add	a6,t0,zero
      94:	00b00313          	li	t1,11
      98:	00628463          	beq	t0,t1,a0 <skip_init_args>
      9c:	34102573          	csrr	a0,mepc

000000a0 <skip_init_args>:
      a0:	4e5040ef          	jal	4d84 <handle_exception>
      a4:	341022f3          	csrr	t0,mepc
      a8:	00428293          	addi	t0,t0,4
      ac:	34129073          	csrw	mepc,t0
      b0:	0180006f          	j	c8 <restore>

000000b4 <external_irq>:
      b4:	800002b7          	lui	t0,0x80000
      b8:	fff28293          	addi	t0,t0,-1 # 7fffffff <_stack_end+0x7fefa33b>
      bc:	34202373          	csrr	t1,mcause
      c0:	0062f533          	and	a0,t0,t1
      c4:	735040ef          	jal	4ff8 <handle_interrupt>

000000c8 <restore>:
      c8:	00012083          	lw	ra,0(sp)
      cc:	00812183          	lw	gp,8(sp)
      d0:	00c12203          	lw	tp,12(sp)
      d4:	01012283          	lw	t0,16(sp)
      d8:	01412303          	lw	t1,20(sp)
      dc:	01812383          	lw	t2,24(sp)
      e0:	01c12403          	lw	s0,28(sp)
      e4:	02012483          	lw	s1,32(sp)
      e8:	02412503          	lw	a0,36(sp)
      ec:	02812583          	lw	a1,40(sp)
      f0:	02c12603          	lw	a2,44(sp)
      f4:	03012683          	lw	a3,48(sp)
      f8:	03412703          	lw	a4,52(sp)
      fc:	03812783          	lw	a5,56(sp)
     100:	03c12803          	lw	a6,60(sp)
     104:	04012883          	lw	a7,64(sp)
     108:	04412903          	lw	s2,68(sp)
     10c:	04812983          	lw	s3,72(sp)
     110:	04c12a03          	lw	s4,76(sp)
     114:	05012a83          	lw	s5,80(sp)
     118:	05412b03          	lw	s6,84(sp)
     11c:	05812b83          	lw	s7,88(sp)
     120:	05c12c03          	lw	s8,92(sp)
     124:	06012c83          	lw	s9,96(sp)
     128:	06412d03          	lw	s10,100(sp)
     12c:	06812d83          	lw	s11,104(sp)
     130:	06c12e03          	lw	t3,108(sp)
     134:	07012e83          	lw	t4,112(sp)
     138:	07412f03          	lw	t5,116(sp)
     13c:	07812f83          	lw	t6,120(sp)
     140:	08010113          	addi	sp,sp,128
     144:	30200073          	mret

00000148 <_start>:
     148:	30401073          	csrw	mie,zero
     14c:	00106117          	auipc	sp,0x106
     150:	b7810113          	addi	sp,sp,-1160 # 105cc4 <_stack_end>
     154:	00005197          	auipc	gp,0x5
     158:	7e118193          	addi	gp,gp,2017 # 5935 <__global_pointer>
     15c:	00005517          	auipc	a0,0x5
     160:	f2450513          	addi	a0,a0,-220 # 5080 <welcome_msg>
     164:	00400893          	li	a7,4
     168:	00000073          	ecall
     16c:	691040ef          	jal	4ffc <main>

00000170 <loop>:
     170:	0000006f          	j	170 <loop>

00000174 <enable_interrupt>:
     174:	3001e073          	csrsi	mstatus,3
     178:	30486073          	csrsi	mie,16
     17c:	00008067          	ret

00000180 <display_string>:
     180:	00400893          	li	a7,4
     184:	00000073          	ecall
     188:	00a00513          	li	a0,10
     18c:	00b00893          	li	a7,11
     190:	00000073          	ecall
     194:	00008067          	ret

00000198 <timetemplate>:
     198:	00005517          	auipc	a0,0x5
     19c:	f8050513          	addi	a0,a0,-128 # 5118 <timstr>
     1a0:	fe1ff0ef          	jal	180 <display_string>
     1a4:	00001537          	lui	a0,0x1
     1a8:	fa050513          	addi	a0,a0,-96 # fa0 <__heap_size+0x7a0>
     1ac:	12c000ef          	jal	2d8 <delay>
     1b0:	00005517          	auipc	a0,0x5
     1b4:	f6450513          	addi	a0,a0,-156 # 5114 <mytime>
     1b8:	020000ef          	jal	1d8 <tick>
     1bc:	00005517          	auipc	a0,0x5
     1c0:	f5c50513          	addi	a0,a0,-164 # 5118 <timstr>
     1c4:	00005297          	auipc	t0,0x5
     1c8:	f5028293          	addi	t0,t0,-176 # 5114 <mytime>
     1cc:	0002a583          	lw	a1,0(t0)
     1d0:	080000ef          	jal	250 <time2string>
     1d4:	fc5ff06f          	j	198 <timetemplate>

000001d8 <tick>:
     1d8:	00052283          	lw	t0,0(a0)
     1dc:	00128293          	addi	t0,t0,1
     1e0:	00f2f313          	andi	t1,t0,15
     1e4:	00a33393          	sltiu	t2,t1,10
     1e8:	06039063          	bnez	t2,248 <tiend>
     1ec:	00628293          	addi	t0,t0,6
     1f0:	0f02f313          	andi	t1,t0,240
     1f4:	06033393          	sltiu	t2,t1,96
     1f8:	04039863          	bnez	t2,248 <tiend>
     1fc:	0a028293          	addi	t0,t0,160
     200:	00f00e13          	li	t3,15
     204:	008e1e13          	slli	t3,t3,0x8
     208:	01c2f333          	and	t1,t0,t3
     20c:	00a00e13          	li	t3,10
     210:	008e1e13          	slli	t3,t3,0x8
     214:	01c323b3          	slt	t2,t1,t3
     218:	02039863          	bnez	t2,248 <tiend>
     21c:	60028293          	addi	t0,t0,1536
     220:	00f00e13          	li	t3,15
     224:	00ce1e13          	slli	t3,t3,0xc
     228:	01c2f333          	and	t1,t0,t3
     22c:	00600e13          	li	t3,6
     230:	00ce1e13          	slli	t3,t3,0xc
     234:	01c323b3          	slt	t2,t1,t3
     238:	00039863          	bnez	t2,248 <tiend>
     23c:	00a00e13          	li	t3,10
     240:	00ce1e13          	slli	t3,t3,0xc
     244:	01c282b3          	add	t0,t0,t3

00000248 <tiend>:
     248:	00552023          	sw	t0,0(a0)
     24c:	00008067          	ret

00000250 <time2string>:
     250:	ff410113          	addi	sp,sp,-12
     254:	00112423          	sw	ra,8(sp)
     258:	00812223          	sw	s0,4(sp)
     25c:	00912023          	sw	s1,0(sp)
     260:	00050413          	mv	s0,a0
     264:	00058493          	mv	s1,a1
     268:	00c4d513          	srli	a0,s1,0xc
     26c:	050000ef          	jal	2bc <hexasc>
     270:	00a40023          	sb	a0,0(s0)
     274:	0084d513          	srli	a0,s1,0x8
     278:	044000ef          	jal	2bc <hexasc>
     27c:	00a400a3          	sb	a0,1(s0)
     280:	03a00293          	li	t0,58
     284:	00540123          	sb	t0,2(s0)
     288:	0044d513          	srli	a0,s1,0x4
     28c:	030000ef          	jal	2bc <hexasc>
     290:	00a401a3          	sb	a0,3(s0)
     294:	00048513          	mv	a0,s1
     298:	024000ef          	jal	2bc <hexasc>
     29c:	00a40223          	sb	a0,4(s0)
     2a0:	00000293          	li	t0,0
     2a4:	005402a3          	sb	t0,5(s0)
     2a8:	00012483          	lw	s1,0(sp)
     2ac:	00412403          	lw	s0,4(sp)
     2b0:	00812083          	lw	ra,8(sp)
     2b4:	00c10113          	addi	sp,sp,12
     2b8:	00008067          	ret

000002bc <hexasc>:
     2bc:	00f57513          	andi	a0,a0,15
     2c0:	00a00293          	li	t0,10
     2c4:	00555663          	bge	a0,t0,2d0 <letters>
     2c8:	03050513          	addi	a0,a0,48
     2cc:	00008067          	ret

000002d0 <letters>:
     2d0:	03750513          	addi	a0,a0,55
     2d4:	00008067          	ret

000002d8 <delay>:
     2d8:	02a05063          	blez	a0,2f8 <exit_delay>

000002dc <while_loop>:
     2dc:	00001337          	lui	t1,0x1
     2e0:	bb830313          	addi	t1,t1,-1096 # bb8 <__heap_size+0x3b8>
     2e4:	00000293          	li	t0,0

000002e8 <for_loop>:
     2e8:	00128293          	addi	t0,t0,1
     2ec:	fe62cee3          	blt	t0,t1,2e8 <for_loop>
     2f0:	fff50513          	addi	a0,a0,-1
     2f4:	fea044e3          	bgtz	a0,2dc <while_loop>

000002f8 <exit_delay>:
     2f8:	00008067          	ret

000002fc <spi_delay_nanos>:
     2fc:	00000013          	nop
     300:	00000013          	nop
     304:	00000013          	nop
     308:	00000013          	nop
     30c:	00000013          	nop
     310:	00008067          	ret

00000314 <timer_init>:
     314:	01c9c7b7          	lui	a5,0x1c9c
     318:	38078793          	addi	a5,a5,896 # 1c9c380 <_stack_end+0x1b966bc>
     31c:	02a7c7b3          	div	a5,a5,a0
     320:	04000737          	lui	a4,0x4000
     324:	00800693          	li	a3,8
     328:	02d72223          	sw	a3,36(a4) # 4000024 <_stack_end+0x3efa360>
     32c:	040005b7          	lui	a1,0x4000
     330:	0205a023          	sw	zero,32(a1) # 4000020 <_stack_end+0x3efa35c>
     334:	04000637          	lui	a2,0x4000
     338:	040006b7          	lui	a3,0x4000
     33c:	01079593          	slli	a1,a5,0x10
     340:	0105d593          	srli	a1,a1,0x10
     344:	02b62423          	sw	a1,40(a2) # 4000028 <_stack_end+0x3efa364>
     348:	0107d793          	srli	a5,a5,0x10
     34c:	02f6a623          	sw	a5,44(a3) # 400002c <_stack_end+0x3efa368>
     350:	00600793          	li	a5,6
     354:	02f72223          	sw	a5,36(a4)
     358:	00008067          	ret

0000035c <timer_check_tick>:
     35c:	040007b7          	lui	a5,0x4000
     360:	0207a703          	lw	a4,32(a5) # 4000020 <_stack_end+0x3efa35c>
     364:	00000513          	li	a0,0
     368:	02078793          	addi	a5,a5,32
     36c:	00177713          	andi	a4,a4,1
     370:	00071463          	bnez	a4,378 <timer_check_tick+0x1c>
     374:	00008067          	ret
     378:	0007a023          	sw	zero,0(a5)
     37c:	00100513          	li	a0,1
     380:	00008067          	ret

00000384 <draw_snake_body>:
     384:	fd010113          	addi	sp,sp,-48
     388:	01812623          	sw	s8,12(sp)
     38c:	00158c13          	addi	s8,a1,1
     390:	002c1793          	slli	a5,s8,0x2
     394:	018787b3          	add	a5,a5,s8
     398:	01712823          	sw	s7,16(sp)
     39c:	00679f93          	slli	t6,a5,0x6
     3a0:	00d50b93          	addi	s7,a0,13
     3a4:	01fb87b3          	add	a5,s7,t6
     3a8:	080006b7          	lui	a3,0x8000
     3ac:	02812623          	sw	s0,44(sp)
     3b0:	02912423          	sw	s1,40(sp)
     3b4:	03212223          	sw	s2,36(sp)
     3b8:	03312023          	sw	s3,32(sp)
     3bc:	01412e23          	sw	s4,28(sp)
     3c0:	01512c23          	sw	s5,24(sp)
     3c4:	01612a23          	sw	s6,20(sp)
     3c8:	00f686b3          	add	a3,a3,a5
     3cc:	000c0713          	mv	a4,s8
     3d0:	00f58e13          	addi	t3,a1,15
     3d4:	00150613          	addi	a2,a0,1
     3d8:	00250993          	addi	s3,a0,2
     3dc:	00350293          	addi	t0,a0,3
     3e0:	00450e93          	addi	t4,a0,4
     3e4:	00550a93          	addi	s5,a0,5
     3e8:	00650493          	addi	s1,a0,6
     3ec:	00750a13          	addi	s4,a0,7
     3f0:	00850393          	addi	t2,a0,8
     3f4:	00950b13          	addi	s6,a0,9
     3f8:	00a50413          	addi	s0,a0,10
     3fc:	00b50913          	addi	s2,a0,11
     400:	00c50f13          	addi	t5,a0,12
     404:	00e50813          	addi	a6,a0,14
     408:	0ef00313          	li	t1,239
     40c:	13f00793          	li	a5,319
     410:	01c00893          	li	a7,28
     414:	06e36a63          	bltu	t1,a4,488 <draw_snake_body+0x104>
     418:	00c7e463          	bltu	a5,a2,420 <draw_snake_body+0x9c>
     41c:	ff168a23          	sb	a7,-12(a3) # 7fffff4 <_stack_end+0x7efa330>
     420:	0137e463          	bltu	a5,s3,428 <draw_snake_body+0xa4>
     424:	ff168aa3          	sb	a7,-11(a3)
     428:	0057e463          	bltu	a5,t0,430 <draw_snake_body+0xac>
     42c:	ff168b23          	sb	a7,-10(a3)
     430:	01d7e463          	bltu	a5,t4,438 <draw_snake_body+0xb4>
     434:	ff168ba3          	sb	a7,-9(a3)
     438:	0157e463          	bltu	a5,s5,440 <draw_snake_body+0xbc>
     43c:	ff168c23          	sb	a7,-8(a3)
     440:	0097e463          	bltu	a5,s1,448 <draw_snake_body+0xc4>
     444:	ff168ca3          	sb	a7,-7(a3)
     448:	0147e463          	bltu	a5,s4,450 <draw_snake_body+0xcc>
     44c:	ff168d23          	sb	a7,-6(a3)
     450:	0077e463          	bltu	a5,t2,458 <draw_snake_body+0xd4>
     454:	ff168da3          	sb	a7,-5(a3)
     458:	0167e463          	bltu	a5,s6,460 <draw_snake_body+0xdc>
     45c:	ff168e23          	sb	a7,-4(a3)
     460:	0087e463          	bltu	a5,s0,468 <draw_snake_body+0xe4>
     464:	ff168ea3          	sb	a7,-3(a3)
     468:	0127e463          	bltu	a5,s2,470 <draw_snake_body+0xec>
     46c:	ff168f23          	sb	a7,-2(a3)
     470:	01e7e463          	bltu	a5,t5,478 <draw_snake_body+0xf4>
     474:	ff168fa3          	sb	a7,-1(a3)
     478:	0177e463          	bltu	a5,s7,480 <draw_snake_body+0xfc>
     47c:	01168023          	sb	a7,0(a3)
     480:	0107e463          	bltu	a5,a6,488 <draw_snake_body+0x104>
     484:	011680a3          	sb	a7,1(a3)
     488:	00170713          	addi	a4,a4,1
     48c:	14068693          	addi	a3,a3,320
     490:	f8ee12e3          	bne	t3,a4,414 <draw_snake_body+0x90>
     494:	00258e13          	addi	t3,a1,2
     498:	220e4863          	bltz	t3,6c8 <draw_snake_body+0x344>
     49c:	080007b7          	lui	a5,0x8000
     4a0:	01f50733          	add	a4,a0,t6
     4a4:	28378793          	addi	a5,a5,643 # 8000283 <_stack_end+0x7efa5bf>
     4a8:	00f70733          	add	a4,a4,a5
     4ac:	01912423          	sw	s9,8(sp)
     4b0:	01450513          	addi	a0,a0,20
     4b4:	00028693          	mv	a3,t0
     4b8:	000e8793          	mv	a5,t4
     4bc:	13f00313          	li	t1,319
     4c0:	ffe78893          	addi	a7,a5,-2
     4c4:	1b136863          	bltu	t1,a7,674 <draw_snake_body+0x2f0>
     4c8:	0ef00893          	li	a7,239
     4cc:	03c8c863          	blt	a7,t3,4fc <draw_snake_body+0x178>
     4d0:	f9c00893          	li	a7,-100
     4d4:	eb170fa3          	sb	a7,-321(a4)
     4d8:	0e700c93          	li	s9,231
     4dc:	1cbcc263          	blt	s9,a1,6a0 <draw_snake_body+0x31c>
     4e0:	63170fa3          	sb	a7,1599(a4)
     4e4:	18d37e63          	bgeu	t1,a3,680 <draw_snake_body+0x2fc>
     4e8:	00f36a63          	bltu	t1,a5,4fc <draw_snake_body+0x178>
     4ec:	f9c00c93          	li	s9,-100
     4f0:	159700a3          	sb	s9,321(a4)
     4f4:	0e500893          	li	a7,229
     4f8:	0eb8dae3          	bge	a7,a1,dec <__heap_size+0x5ec>
     4fc:	00478793          	addi	a5,a5,4
     500:	00468693          	addi	a3,a3,4
     504:	00470713          	addi	a4,a4,4
     508:	faf51ce3          	bne	a0,a5,4c0 <draw_snake_body+0x13c>
     50c:	0ef00793          	li	a5,239
     510:	4187cc63          	blt	a5,s8,928 <__heap_size+0x128>
     514:	00e58713          	addi	a4,a1,14
     518:	10e7d4e3          	bge	a5,a4,e20 <__heap_size+0x620>
     51c:	13f00793          	li	a5,319
     520:	0137ec63          	bltu	a5,s3,538 <draw_snake_body+0x1b4>
     524:	013f89b3          	add	s3,t6,s3
     528:	080007b7          	lui	a5,0x8000
     52c:	013787b3          	add	a5,a5,s3
     530:	01400713          	li	a4,20
     534:	00e78023          	sb	a4,0(a5) # 8000000 <_stack_end+0x7efa33c>
     538:	13f00793          	li	a5,319
     53c:	0057ec63          	bltu	a5,t0,554 <draw_snake_body+0x1d0>
     540:	01f282b3          	add	t0,t0,t6
     544:	080007b7          	lui	a5,0x8000
     548:	005787b3          	add	a5,a5,t0
     54c:	01400713          	li	a4,20
     550:	00e78023          	sb	a4,0(a5) # 8000000 <_stack_end+0x7efa33c>
     554:	13f00793          	li	a5,319
     558:	01d7ec63          	bltu	a5,t4,570 <draw_snake_body+0x1ec>
     55c:	01fe8eb3          	add	t4,t4,t6
     560:	080007b7          	lui	a5,0x8000
     564:	01d787b3          	add	a5,a5,t4
     568:	01400713          	li	a4,20
     56c:	00e78023          	sb	a4,0(a5) # 8000000 <_stack_end+0x7efa33c>
     570:	13f00793          	li	a5,319
     574:	0157ec63          	bltu	a5,s5,58c <draw_snake_body+0x208>
     578:	01fa8ab3          	add	s5,s5,t6
     57c:	080007b7          	lui	a5,0x8000
     580:	015787b3          	add	a5,a5,s5
     584:	01400713          	li	a4,20
     588:	00e78023          	sb	a4,0(a5) # 8000000 <_stack_end+0x7efa33c>
     58c:	13f00793          	li	a5,319
     590:	0097ec63          	bltu	a5,s1,5a8 <draw_snake_body+0x224>
     594:	01f484b3          	add	s1,s1,t6
     598:	080007b7          	lui	a5,0x8000
     59c:	009787b3          	add	a5,a5,s1
     5a0:	01400713          	li	a4,20
     5a4:	00e78023          	sb	a4,0(a5) # 8000000 <_stack_end+0x7efa33c>
     5a8:	13f00793          	li	a5,319
     5ac:	0147ec63          	bltu	a5,s4,5c4 <draw_snake_body+0x240>
     5b0:	01fa0a33          	add	s4,s4,t6
     5b4:	080007b7          	lui	a5,0x8000
     5b8:	014787b3          	add	a5,a5,s4
     5bc:	01400713          	li	a4,20
     5c0:	00e78023          	sb	a4,0(a5) # 8000000 <_stack_end+0x7efa33c>
     5c4:	13f00793          	li	a5,319
     5c8:	0077ec63          	bltu	a5,t2,5e0 <draw_snake_body+0x25c>
     5cc:	01f383b3          	add	t2,t2,t6
     5d0:	080007b7          	lui	a5,0x8000
     5d4:	007787b3          	add	a5,a5,t2
     5d8:	01400713          	li	a4,20
     5dc:	00e78023          	sb	a4,0(a5) # 8000000 <_stack_end+0x7efa33c>
     5e0:	13f00793          	li	a5,319
     5e4:	0167ec63          	bltu	a5,s6,5fc <draw_snake_body+0x278>
     5e8:	01fb0b33          	add	s6,s6,t6
     5ec:	080007b7          	lui	a5,0x8000
     5f0:	016787b3          	add	a5,a5,s6
     5f4:	01400713          	li	a4,20
     5f8:	00e78023          	sb	a4,0(a5) # 8000000 <_stack_end+0x7efa33c>
     5fc:	13f00793          	li	a5,319
     600:	0087ec63          	bltu	a5,s0,618 <draw_snake_body+0x294>
     604:	01f40433          	add	s0,s0,t6
     608:	080007b7          	lui	a5,0x8000
     60c:	008787b3          	add	a5,a5,s0
     610:	01400713          	li	a4,20
     614:	00e78023          	sb	a4,0(a5) # 8000000 <_stack_end+0x7efa33c>
     618:	13f00793          	li	a5,319
     61c:	0127ec63          	bltu	a5,s2,634 <draw_snake_body+0x2b0>
     620:	01f90933          	add	s2,s2,t6
     624:	080007b7          	lui	a5,0x8000
     628:	012787b3          	add	a5,a5,s2
     62c:	01400713          	li	a4,20
     630:	00e78023          	sb	a4,0(a5) # 8000000 <_stack_end+0x7efa33c>
     634:	13f00793          	li	a5,319
     638:	01e7ec63          	bltu	a5,t5,650 <draw_snake_body+0x2cc>
     63c:	01ff0f33          	add	t5,t5,t6
     640:	080007b7          	lui	a5,0x8000
     644:	01e787b3          	add	a5,a5,t5
     648:	01400713          	li	a4,20
     64c:	00e78023          	sb	a4,0(a5) # 8000000 <_stack_end+0x7efa33c>
     650:	13f00793          	li	a5,319
     654:	2d77ea63          	bltu	a5,s7,928 <__heap_size+0x128>
     658:	01fb8fb3          	add	t6,s7,t6
     65c:	080007b7          	lui	a5,0x8000
     660:	01f787b3          	add	a5,a5,t6
     664:	01400713          	li	a4,20
     668:	00e78023          	sb	a4,0(a5) # 8000000 <_stack_end+0x7efa33c>
     66c:	00812c83          	lw	s9,8(sp)
     670:	2bc0006f          	j	92c <__heap_size+0x12c>
     674:	02d36863          	bltu	t1,a3,6a4 <draw_snake_body+0x320>
     678:	0ec00893          	li	a7,236
     67c:	e8b8c0e3          	blt	a7,a1,4fc <draw_snake_body+0x178>
     680:	f9c00893          	li	a7,-100
     684:	01170023          	sb	a7,0(a4)
     688:	0e600c93          	li	s9,230
     68c:	78bcc463          	blt	s9,a1,e14 <__heap_size+0x614>
     690:	79170023          	sb	a7,1920(a4)
     694:	13f00893          	li	a7,319
     698:	e4f8fae3          	bgeu	a7,a5,4ec <draw_snake_body+0x168>
     69c:	e61ff06f          	j	4fc <draw_snake_body+0x178>
     6a0:	76d37863          	bgeu	t1,a3,e10 <__heap_size+0x610>
     6a4:	e4f36ce3          	bltu	t1,a5,4fc <draw_snake_body+0x178>
     6a8:	00458893          	addi	a7,a1,4
     6ac:	0ef00c93          	li	s9,239
     6b0:	e51cc6e3          	blt	s9,a7,4fc <draw_snake_body+0x178>
     6b4:	f9c00c93          	li	s9,-100
     6b8:	159700a3          	sb	s9,321(a4)
     6bc:	0e500893          	li	a7,229
     6c0:	e2b8cee3          	blt	a7,a1,4fc <draw_snake_body+0x178>
     6c4:	7280006f          	j	dec <__heap_size+0x5ec>
     6c8:	13f00793          	li	a5,319
     6cc:	5937ea63          	bltu	a5,s3,c60 <__heap_size+0x460>
     6d0:	00858713          	addi	a4,a1,8
     6d4:	70075ee3          	bgez	a4,15f0 <__heap_size+0xdf0>
     6d8:	00958793          	addi	a5,a1,9
     6dc:	7207dce3          	bgez	a5,1614 <__heap_size+0xe14>
     6e0:	00a58793          	addi	a5,a1,10
     6e4:	5a07d063          	bgez	a5,c84 <__heap_size+0x484>
     6e8:	13f00713          	li	a4,319
     6ec:	669768e3          	bltu	a4,s1,155c <__heap_size+0xd5c>
     6f0:	13f00713          	li	a4,319
     6f4:	768778e3          	bgeu	a4,s0,1664 <__heap_size+0xe64>
     6f8:	75277ae3          	bgeu	a4,s2,164c <__heap_size+0xe4c>
     6fc:	03e76463          	bltu	a4,t5,724 <draw_snake_body+0x3a0>
     700:	7607c2e3          	bltz	a5,1664 <__heap_size+0xe64>
     704:	00279713          	slli	a4,a5,0x2
     708:	00f707b3          	add	a5,a4,a5
     70c:	00679793          	slli	a5,a5,0x6
     710:	08000737          	lui	a4,0x8000
     714:	01e787b3          	add	a5,a5,t5
     718:	00f707b3          	add	a5,a4,a5
     71c:	f9c00713          	li	a4,-100
     720:	00e78023          	sb	a4,0(a5)
     724:	13f00793          	li	a5,319
     728:	00f50713          	addi	a4,a0,15
     72c:	01050513          	addi	a0,a0,16
     730:	0307e663          	bltu	a5,a6,75c <draw_snake_body+0x3d8>
     734:	00858693          	addi	a3,a1,8
     738:	0206c663          	bltz	a3,764 <draw_snake_body+0x3e0>
     73c:	00269793          	slli	a5,a3,0x2
     740:	00d787b3          	add	a5,a5,a3
     744:	00679793          	slli	a5,a5,0x6
     748:	080006b7          	lui	a3,0x8000
     74c:	00f807b3          	add	a5,a6,a5
     750:	00f687b3          	add	a5,a3,a5
     754:	f9c00693          	li	a3,-100
     758:	00d78023          	sb	a3,0(a5)
     75c:	13f00793          	li	a5,319
     760:	60e7e6e3          	bltu	a5,a4,156c <__heap_size+0xd6c>
     764:	00958693          	addi	a3,a1,9
     768:	6c06cae3          	bltz	a3,163c <__heap_size+0xe3c>
     76c:	00269793          	slli	a5,a3,0x2
     770:	00d787b3          	add	a5,a5,a3
     774:	00679793          	slli	a5,a5,0x6
     778:	00e787b3          	add	a5,a5,a4
     77c:	08000737          	lui	a4,0x8000
     780:	00f707b3          	add	a5,a4,a5
     784:	f9c00713          	li	a4,-100
     788:	00e78023          	sb	a4,0(a5)
     78c:	13f00793          	li	a5,319
     790:	02a7ec63          	bltu	a5,a0,7c8 <draw_snake_body+0x444>
     794:	ffc00793          	li	a5,-4
     798:	60f5d2e3          	bge	a1,a5,159c <__heap_size+0xd9c>
     79c:	00a58793          	addi	a5,a1,10
     7a0:	0207c063          	bltz	a5,7c0 <draw_snake_body+0x43c>
     7a4:	14000713          	li	a4,320
     7a8:	02e787b3          	mul	a5,a5,a4
     7ac:	08000737          	lui	a4,0x8000
     7b0:	00a787b3          	add	a5,a5,a0
     7b4:	00f707b3          	add	a5,a4,a5
     7b8:	f9c00713          	li	a4,-100
     7bc:	00e78023          	sb	a4,0(a5)
     7c0:	00e58793          	addi	a5,a1,14
     7c4:	1607c463          	bltz	a5,92c <__heap_size+0x12c>
     7c8:	000017b7          	lui	a5,0x1
     7cc:	04078793          	addi	a5,a5,64 # 1040 <__heap_size+0x840>
     7d0:	00ff87b3          	add	a5,t6,a5
     7d4:	13f00713          	li	a4,319
     7d8:	01376c63          	bltu	a4,s3,7f0 <draw_snake_body+0x46c>
     7dc:	00f989b3          	add	s3,s3,a5
     7e0:	08000737          	lui	a4,0x8000
     7e4:	01370733          	add	a4,a4,s3
     7e8:	01400693          	li	a3,20
     7ec:	00d70023          	sb	a3,0(a4) # 8000000 <_stack_end+0x7efa33c>
     7f0:	13f00713          	li	a4,319
     7f4:	00576c63          	bltu	a4,t0,80c <__heap_size+0xc>
     7f8:	00f282b3          	add	t0,t0,a5
     7fc:	08000737          	lui	a4,0x8000
     800:	00570733          	add	a4,a4,t0
     804:	01400693          	li	a3,20
     808:	00d70023          	sb	a3,0(a4) # 8000000 <_stack_end+0x7efa33c>
     80c:	13f00713          	li	a4,319
     810:	01d76c63          	bltu	a4,t4,828 <__heap_size+0x28>
     814:	00fe8eb3          	add	t4,t4,a5
     818:	08000737          	lui	a4,0x8000
     81c:	01d70733          	add	a4,a4,t4
     820:	01400693          	li	a3,20
     824:	00d70023          	sb	a3,0(a4) # 8000000 <_stack_end+0x7efa33c>
     828:	13f00713          	li	a4,319
     82c:	01576c63          	bltu	a4,s5,844 <__heap_size+0x44>
     830:	00fa8ab3          	add	s5,s5,a5
     834:	08000737          	lui	a4,0x8000
     838:	01570733          	add	a4,a4,s5
     83c:	01400693          	li	a3,20
     840:	00d70023          	sb	a3,0(a4) # 8000000 <_stack_end+0x7efa33c>
     844:	13f00713          	li	a4,319
     848:	00976c63          	bltu	a4,s1,860 <__heap_size+0x60>
     84c:	00f484b3          	add	s1,s1,a5
     850:	08000737          	lui	a4,0x8000
     854:	00970733          	add	a4,a4,s1
     858:	01400693          	li	a3,20
     85c:	00d70023          	sb	a3,0(a4) # 8000000 <_stack_end+0x7efa33c>
     860:	13f00713          	li	a4,319
     864:	01476c63          	bltu	a4,s4,87c <__heap_size+0x7c>
     868:	00fa0a33          	add	s4,s4,a5
     86c:	08000737          	lui	a4,0x8000
     870:	01470733          	add	a4,a4,s4
     874:	01400693          	li	a3,20
     878:	00d70023          	sb	a3,0(a4) # 8000000 <_stack_end+0x7efa33c>
     87c:	13f00713          	li	a4,319
     880:	00776c63          	bltu	a4,t2,898 <__heap_size+0x98>
     884:	00f383b3          	add	t2,t2,a5
     888:	08000737          	lui	a4,0x8000
     88c:	00770733          	add	a4,a4,t2
     890:	01400693          	li	a3,20
     894:	00d70023          	sb	a3,0(a4) # 8000000 <_stack_end+0x7efa33c>
     898:	13f00713          	li	a4,319
     89c:	01676c63          	bltu	a4,s6,8b4 <__heap_size+0xb4>
     8a0:	00fb0b33          	add	s6,s6,a5
     8a4:	08000737          	lui	a4,0x8000
     8a8:	01670733          	add	a4,a4,s6
     8ac:	01400693          	li	a3,20
     8b0:	00d70023          	sb	a3,0(a4) # 8000000 <_stack_end+0x7efa33c>
     8b4:	13f00713          	li	a4,319
     8b8:	00876c63          	bltu	a4,s0,8d0 <__heap_size+0xd0>
     8bc:	00f40433          	add	s0,s0,a5
     8c0:	08000737          	lui	a4,0x8000
     8c4:	00870733          	add	a4,a4,s0
     8c8:	01400693          	li	a3,20
     8cc:	00d70023          	sb	a3,0(a4) # 8000000 <_stack_end+0x7efa33c>
     8d0:	13f00713          	li	a4,319
     8d4:	01276c63          	bltu	a4,s2,8ec <__heap_size+0xec>
     8d8:	00f90933          	add	s2,s2,a5
     8dc:	08000737          	lui	a4,0x8000
     8e0:	01270733          	add	a4,a4,s2
     8e4:	01400693          	li	a3,20
     8e8:	00d70023          	sb	a3,0(a4) # 8000000 <_stack_end+0x7efa33c>
     8ec:	13f00713          	li	a4,319
     8f0:	01e76c63          	bltu	a4,t5,908 <__heap_size+0x108>
     8f4:	00ff0f33          	add	t5,t5,a5
     8f8:	08000737          	lui	a4,0x8000
     8fc:	01e70733          	add	a4,a4,t5
     900:	01400693          	li	a3,20
     904:	00d70023          	sb	a3,0(a4) # 8000000 <_stack_end+0x7efa33c>
     908:	13f00713          	li	a4,319
     90c:	03776063          	bltu	a4,s7,92c <__heap_size+0x12c>
     910:	08000737          	lui	a4,0x8000
     914:	00fb87b3          	add	a5,s7,a5
     918:	00f707b3          	add	a5,a4,a5
     91c:	01400713          	li	a4,20
     920:	00e78023          	sb	a4,0(a5)
     924:	0080006f          	j	92c <__heap_size+0x12c>
     928:	00812c83          	lw	s9,8(sp)
     92c:	13f00793          	li	a5,319
     930:	0ec7f463          	bgeu	a5,a2,a18 <__heap_size+0x218>
     934:	0b07ec63          	bltu	a5,a6,9ec <__heap_size+0x1ec>
     938:	0ef00793          	li	a5,239
     93c:	03c7e263          	bltu	a5,t3,960 <__heap_size+0x160>
     940:	002e1793          	slli	a5,t3,0x2
     944:	01c787b3          	add	a5,a5,t3
     948:	00679793          	slli	a5,a5,0x6
     94c:	08000737          	lui	a4,0x8000
     950:	010787b3          	add	a5,a5,a6
     954:	00f707b3          	add	a5,a4,a5
     958:	01400713          	li	a4,20
     95c:	00e78023          	sb	a4,0(a5)
     960:	00358713          	addi	a4,a1,3
     964:	0ef00793          	li	a5,239
     968:	6ae7e663          	bltu	a5,a4,1014 <__heap_size+0x814>
     96c:	00271793          	slli	a5,a4,0x2
     970:	00e787b3          	add	a5,a5,a4
     974:	00679793          	slli	a5,a5,0x6
     978:	08000737          	lui	a4,0x8000
     97c:	010787b3          	add	a5,a5,a6
     980:	00f707b3          	add	a5,a4,a5
     984:	01400713          	li	a4,20
     988:	00e78023          	sb	a4,0(a5)
     98c:	00458713          	addi	a4,a1,4
     990:	6900006f          	j	1020 <__heap_size+0x820>
     994:	00c58713          	addi	a4,a1,12
     998:	02e7e463          	bltu	a5,a4,9c0 <__heap_size+0x1c0>
     99c:	00000713          	li	a4,0
     9a0:	00271793          	slli	a5,a4,0x2
     9a4:	00e787b3          	add	a5,a5,a4
     9a8:	00679793          	slli	a5,a5,0x6
     9ac:	08000737          	lui	a4,0x8000
     9b0:	010787b3          	add	a5,a5,a6
     9b4:	00f707b3          	add	a5,a4,a5
     9b8:	01400713          	li	a4,20
     9bc:	00e78023          	sb	a4,0(a5)
     9c0:	00d58593          	addi	a1,a1,13
     9c4:	0ef00793          	li	a5,239
     9c8:	02b7e263          	bltu	a5,a1,9ec <__heap_size+0x1ec>
     9cc:	00259793          	slli	a5,a1,0x2
     9d0:	00b787b3          	add	a5,a5,a1
     9d4:	00679793          	slli	a5,a5,0x6
     9d8:	08000737          	lui	a4,0x8000
     9dc:	010787b3          	add	a5,a5,a6
     9e0:	00f707b3          	add	a5,a4,a5
     9e4:	01400713          	li	a4,20
     9e8:	00e78023          	sb	a4,0(a5)
     9ec:	02c12403          	lw	s0,44(sp)
     9f0:	02812483          	lw	s1,40(sp)
     9f4:	02412903          	lw	s2,36(sp)
     9f8:	02012983          	lw	s3,32(sp)
     9fc:	01c12a03          	lw	s4,28(sp)
     a00:	01812a83          	lw	s5,24(sp)
     a04:	01412b03          	lw	s6,20(sp)
     a08:	01012b83          	lw	s7,16(sp)
     a0c:	00c12c03          	lw	s8,12(sp)
     a10:	03010113          	addi	sp,sp,48
     a14:	00008067          	ret
     a18:	1d07da63          	bge	a5,a6,bec <__heap_size+0x3ec>
     a1c:	0ef00793          	li	a5,239
     a20:	03c7e263          	bltu	a5,t3,a44 <__heap_size+0x244>
     a24:	002e1793          	slli	a5,t3,0x2
     a28:	01c787b3          	add	a5,a5,t3
     a2c:	00679793          	slli	a5,a5,0x6
     a30:	08000737          	lui	a4,0x8000
     a34:	00c787b3          	add	a5,a5,a2
     a38:	00f707b3          	add	a5,a4,a5
     a3c:	01400713          	li	a4,20
     a40:	00e78023          	sb	a4,0(a5)
     a44:	00358713          	addi	a4,a1,3
     a48:	0ef00793          	li	a5,239
     a4c:	38e7e063          	bltu	a5,a4,dcc <__heap_size+0x5cc>
     a50:	00458693          	addi	a3,a1,4
     a54:	00271793          	slli	a5,a4,0x2
     a58:	00e787b3          	add	a5,a5,a4
     a5c:	00269713          	slli	a4,a3,0x2
     a60:	00d70733          	add	a4,a4,a3
     a64:	00679793          	slli	a5,a5,0x6
     a68:	080006b7          	lui	a3,0x8000
     a6c:	00c787b3          	add	a5,a5,a2
     a70:	00671713          	slli	a4,a4,0x6
     a74:	00f687b3          	add	a5,a3,a5
     a78:	01400513          	li	a0,20
     a7c:	00c70733          	add	a4,a4,a2
     a80:	00a78023          	sb	a0,0(a5)
     a84:	00e686b3          	add	a3,a3,a4
     a88:	00a68023          	sb	a0,0(a3) # 8000000 <_stack_end+0x7efa33c>
     a8c:	00558793          	addi	a5,a1,5
     a90:	14000713          	li	a4,320
     a94:	02e78733          	mul	a4,a5,a4
     a98:	080006b7          	lui	a3,0x8000
     a9c:	00658793          	addi	a5,a1,6
     aa0:	00c70733          	add	a4,a4,a2
     aa4:	00e68733          	add	a4,a3,a4
     aa8:	01400693          	li	a3,20
     aac:	00d70023          	sb	a3,0(a4) # 8000000 <_stack_end+0x7efa33c>
     ab0:	14000713          	li	a4,320
     ab4:	02e78733          	mul	a4,a5,a4
     ab8:	080006b7          	lui	a3,0x8000
     abc:	00758793          	addi	a5,a1,7
     ac0:	0ef00513          	li	a0,239
     ac4:	00c70733          	add	a4,a4,a2
     ac8:	00e68733          	add	a4,a3,a4
     acc:	01400693          	li	a3,20
     ad0:	00d70023          	sb	a3,0(a4)
     ad4:	24f542e3          	blt	a0,a5,1518 <__heap_size+0xd18>
     ad8:	14000713          	li	a4,320
     adc:	02e78733          	mul	a4,a5,a4
     ae0:	080006b7          	lui	a3,0x8000
     ae4:	00858793          	addi	a5,a1,8
     ae8:	0ef00513          	li	a0,239
     aec:	00c70733          	add	a4,a4,a2
     af0:	00e68733          	add	a4,a3,a4
     af4:	01400693          	li	a3,20
     af8:	00d70023          	sb	a3,0(a4)
     afc:	0cf54063          	blt	a0,a5,bbc <__heap_size+0x3bc>
     b00:	14000713          	li	a4,320
     b04:	02e78733          	mul	a4,a5,a4
     b08:	080006b7          	lui	a3,0x8000
     b0c:	00958793          	addi	a5,a1,9
     b10:	0ef00513          	li	a0,239
     b14:	00c70733          	add	a4,a4,a2
     b18:	00e68733          	add	a4,a3,a4
     b1c:	01400693          	li	a3,20
     b20:	00d70023          	sb	a3,0(a4)
     b24:	ecf544e3          	blt	a0,a5,9ec <__heap_size+0x1ec>
     b28:	14000713          	li	a4,320
     b2c:	02e78733          	mul	a4,a5,a4
     b30:	080006b7          	lui	a3,0x8000
     b34:	00a58793          	addi	a5,a1,10
     b38:	0ef00513          	li	a0,239
     b3c:	00c70733          	add	a4,a4,a2
     b40:	00e68733          	add	a4,a3,a4
     b44:	01400693          	li	a3,20
     b48:	00d70023          	sb	a3,0(a4)
     b4c:	eaf540e3          	blt	a0,a5,9ec <__heap_size+0x1ec>
     b50:	14000713          	li	a4,320
     b54:	02e78733          	mul	a4,a5,a4
     b58:	080006b7          	lui	a3,0x8000
     b5c:	00b58793          	addi	a5,a1,11
     b60:	0ef00513          	li	a0,239
     b64:	00c70733          	add	a4,a4,a2
     b68:	00e68733          	add	a4,a3,a4
     b6c:	01400693          	li	a3,20
     b70:	00d70023          	sb	a3,0(a4)
     b74:	e6f54ce3          	blt	a0,a5,9ec <__heap_size+0x1ec>
     b78:	14000713          	li	a4,320
     b7c:	02e78733          	mul	a4,a5,a4
     b80:	080006b7          	lui	a3,0x8000
     b84:	00c58793          	addi	a5,a1,12
     b88:	0f000513          	li	a0,240
     b8c:	00c70733          	add	a4,a4,a2
     b90:	00e68733          	add	a4,a3,a4
     b94:	01400693          	li	a3,20
     b98:	00d70023          	sb	a3,0(a4)
     b9c:	e4a788e3          	beq	a5,a0,9ec <__heap_size+0x1ec>
     ba0:	14000713          	li	a4,320
     ba4:	02e787b3          	mul	a5,a5,a4
     ba8:	08000737          	lui	a4,0x8000
     bac:	00c787b3          	add	a5,a5,a2
     bb0:	00f707b3          	add	a5,a4,a5
     bb4:	01400713          	li	a4,20
     bb8:	00e78023          	sb	a4,0(a5)
     bbc:	00d58593          	addi	a1,a1,13
     bc0:	0ef00793          	li	a5,239
     bc4:	e2b7e4e3          	bltu	a5,a1,9ec <__heap_size+0x1ec>
     bc8:	00259793          	slli	a5,a1,0x2
     bcc:	00b787b3          	add	a5,a5,a1
     bd0:	00679793          	slli	a5,a5,0x6
     bd4:	08000737          	lui	a4,0x8000
     bd8:	00c787b3          	add	a5,a5,a2
     bdc:	00f707b3          	add	a5,a4,a5
     be0:	01400713          	li	a4,20
     be4:	00e78023          	sb	a4,0(a5)
     be8:	e05ff06f          	j	9ec <__heap_size+0x1ec>
     bec:	0ef00793          	li	a5,239
     bf0:	03c7e863          	bltu	a5,t3,c20 <__heap_size+0x420>
     bf4:	002e1793          	slli	a5,t3,0x2
     bf8:	01c787b3          	add	a5,a5,t3
     bfc:	00679793          	slli	a5,a5,0x6
     c00:	08000737          	lui	a4,0x8000
     c04:	00f606b3          	add	a3,a2,a5
     c08:	01400513          	li	a0,20
     c0c:	00d706b3          	add	a3,a4,a3
     c10:	00f807b3          	add	a5,a6,a5
     c14:	00a68023          	sb	a0,0(a3) # 8000000 <_stack_end+0x7efa33c>
     c18:	00f70733          	add	a4,a4,a5
     c1c:	00a70023          	sb	a0,0(a4) # 8000000 <_stack_end+0x7efa33c>
     c20:	00358713          	addi	a4,a1,3
     c24:	0ef00793          	li	a5,239
     c28:	16e7e263          	bltu	a5,a4,d8c <__heap_size+0x58c>
     c2c:	00271793          	slli	a5,a4,0x2
     c30:	00e787b3          	add	a5,a5,a4
     c34:	00679793          	slli	a5,a5,0x6
     c38:	08000737          	lui	a4,0x8000
     c3c:	00f606b3          	add	a3,a2,a5
     c40:	01400513          	li	a0,20
     c44:	00d706b3          	add	a3,a4,a3
     c48:	00f807b3          	add	a5,a6,a5
     c4c:	00f70733          	add	a4,a4,a5
     c50:	00a68023          	sb	a0,0(a3)
     c54:	00a70023          	sb	a0,0(a4) # 8000000 <_stack_end+0x7efa33c>
     c58:	00458713          	addi	a4,a1,4
     c5c:	13c0006f          	j	d98 <__heap_size+0x598>
     c60:	a657fce3          	bgeu	a5,t0,6d8 <draw_snake_body+0x354>
     c64:	05d7e063          	bltu	a5,t4,ca4 <__heap_size+0x4a4>
     c68:	ffc00793          	li	a5,-4
     c6c:	a6f5cae3          	blt	a1,a5,6e0 <draw_snake_body+0x35c>
     c70:	080007b7          	lui	a5,0x8000
     c74:	01d787b3          	add	a5,a5,t4
     c78:	f9c00713          	li	a4,-100
     c7c:	00e78023          	sb	a4,0(a5) # 8000000 <_stack_end+0x7efa33c>
     c80:	00a58793          	addi	a5,a1,10
     c84:	00279713          	slli	a4,a5,0x2
     c88:	00f707b3          	add	a5,a4,a5
     c8c:	00679793          	slli	a5,a5,0x6
     c90:	08000737          	lui	a4,0x8000
     c94:	01d787b3          	add	a5,a5,t4
     c98:	00f707b3          	add	a5,a4,a5
     c9c:	f9c00713          	li	a4,-100
     ca0:	00e78023          	sb	a4,0(a5)
     ca4:	13f00793          	li	a5,319
     ca8:	0297e663          	bltu	a5,s1,cd4 <__heap_size+0x4d4>
     cac:	00858713          	addi	a4,a1,8
     cb0:	02074663          	bltz	a4,cdc <__heap_size+0x4dc>
     cb4:	00271793          	slli	a5,a4,0x2
     cb8:	00e787b3          	add	a5,a5,a4
     cbc:	00679793          	slli	a5,a5,0x6
     cc0:	08000737          	lui	a4,0x8000
     cc4:	00f487b3          	add	a5,s1,a5
     cc8:	00f707b3          	add	a5,a4,a5
     ccc:	f9c00713          	li	a4,-100
     cd0:	00e78023          	sb	a4,0(a5)
     cd4:	13f00793          	li	a5,319
     cd8:	0347e663          	bltu	a5,s4,d04 <__heap_size+0x504>
     cdc:	00958793          	addi	a5,a1,9
     ce0:	0807cae3          	bltz	a5,1574 <__heap_size+0xd74>
     ce4:	00279713          	slli	a4,a5,0x2
     ce8:	00f707b3          	add	a5,a4,a5
     cec:	00679793          	slli	a5,a5,0x6
     cf0:	08000737          	lui	a4,0x8000
     cf4:	014787b3          	add	a5,a5,s4
     cf8:	00f707b3          	add	a5,a4,a5
     cfc:	f9c00713          	li	a4,-100
     d00:	00e78023          	sb	a4,0(a5)
     d04:	13f00793          	li	a5,319
     d08:	0277ea63          	bltu	a5,t2,d3c <__heap_size+0x53c>
     d0c:	ffc00793          	li	a5,-4
     d10:	06f5dae3          	bge	a1,a5,1584 <__heap_size+0xd84>
     d14:	00a58793          	addi	a5,a1,10
     d18:	9c07cce3          	bltz	a5,6f0 <draw_snake_body+0x36c>
     d1c:	00279713          	slli	a4,a5,0x2
     d20:	00f707b3          	add	a5,a4,a5
     d24:	00679793          	slli	a5,a5,0x6
     d28:	08000737          	lui	a4,0x8000
     d2c:	007787b3          	add	a5,a5,t2
     d30:	00f707b3          	add	a5,a4,a5
     d34:	f9c00713          	li	a4,-100
     d38:	00e78023          	sb	a4,0(a5)
     d3c:	13f00793          	li	a5,319
     d40:	0087eee3          	bltu	a5,s0,155c <__heap_size+0xd5c>
     d44:	00858713          	addi	a4,a1,8
     d48:	7e075a63          	bgez	a4,153c <__heap_size+0xd3c>
     d4c:	00958793          	addi	a5,a1,9
     d50:	0e07cee3          	bltz	a5,164c <__heap_size+0xe4c>
     d54:	00279713          	slli	a4,a5,0x2
     d58:	00f707b3          	add	a5,a4,a5
     d5c:	00679793          	slli	a5,a5,0x6
     d60:	08000737          	lui	a4,0x8000
     d64:	012787b3          	add	a5,a5,s2
     d68:	00f707b3          	add	a5,a4,a5
     d6c:	f9c00713          	li	a4,-100
     d70:	00e78023          	sb	a4,0(a5)
     d74:	13f00793          	li	a5,319
     d78:	9be7e6e3          	bltu	a5,t5,724 <draw_snake_body+0x3a0>
     d7c:	ffc00793          	li	a5,-4
     d80:	04f5dce3          	bge	a1,a5,15d8 <__heap_size+0xdd8>
     d84:	00a58793          	addi	a5,a1,10
     d88:	979ff06f          	j	700 <draw_snake_body+0x37c>
     d8c:	00458713          	addi	a4,a1,4
     d90:	2ae7ec63          	bltu	a5,a4,1048 <__heap_size+0x848>
     d94:	00000713          	li	a4,0
     d98:	00271793          	slli	a5,a4,0x2
     d9c:	00e787b3          	add	a5,a5,a4
     da0:	00679793          	slli	a5,a5,0x6
     da4:	08000737          	lui	a4,0x8000
     da8:	00f606b3          	add	a3,a2,a5
     dac:	01400513          	li	a0,20
     db0:	00d706b3          	add	a3,a4,a3
     db4:	00f807b3          	add	a5,a6,a5
     db8:	00f70733          	add	a4,a4,a5
     dbc:	00a68023          	sb	a0,0(a3)
     dc0:	00a70023          	sb	a0,0(a4) # 8000000 <_stack_end+0x7efa33c>
     dc4:	00558713          	addi	a4,a1,5
     dc8:	28c0006f          	j	1054 <__heap_size+0x854>
     dcc:	00458713          	addi	a4,a1,4
     dd0:	34e7e063          	bltu	a5,a4,1110 <__heap_size+0x910>
     dd4:	080007b7          	lui	a5,0x8000
     dd8:	00c787b3          	add	a5,a5,a2
     ddc:	01400713          	li	a4,20
     de0:	00e78023          	sb	a4,0(a5) # 8000000 <_stack_end+0x7efa33c>
     de4:	00100793          	li	a5,1
     de8:	ca9ff06f          	j	a90 <__heap_size+0x290>
     dec:	000018b7          	lui	a7,0x1
     df0:	8c188893          	addi	a7,a7,-1855 # 8c1 <__heap_size+0xc1>
     df4:	011708b3          	add	a7,a4,a7
     df8:	01988023          	sb	s9,0(a7)
     dfc:	00478793          	addi	a5,a5,4
     e00:	00468693          	addi	a3,a3,4
     e04:	00470713          	addi	a4,a4,4
     e08:	eaf51c63          	bne	a0,a5,4c0 <draw_snake_body+0x13c>
     e0c:	f00ff06f          	j	50c <draw_snake_body+0x188>
     e10:	01170023          	sb	a7,0(a4)
     e14:	13f00893          	li	a7,319
     e18:	eef8e263          	bltu	a7,a5,4fc <draw_snake_body+0x178>
     e1c:	88dff06f          	j	6a8 <draw_snake_body+0x324>
     e20:	000017b7          	lui	a5,0x1
     e24:	04078793          	addi	a5,a5,64 # 1040 <__heap_size+0x840>
     e28:	13f00713          	li	a4,319
     e2c:	00ff87b3          	add	a5,t6,a5
     e30:	03376263          	bltu	a4,s3,e54 <__heap_size+0x654>
     e34:	08000737          	lui	a4,0x8000
     e38:	013f86b3          	add	a3,t6,s3
     e3c:	01400513          	li	a0,20
     e40:	00d706b3          	add	a3,a4,a3
     e44:	013789b3          	add	s3,a5,s3
     e48:	00a68023          	sb	a0,0(a3)
     e4c:	01370733          	add	a4,a4,s3
     e50:	00a70023          	sb	a0,0(a4) # 8000000 <_stack_end+0x7efa33c>
     e54:	13f00713          	li	a4,319
     e58:	02576263          	bltu	a4,t0,e7c <__heap_size+0x67c>
     e5c:	08000737          	lui	a4,0x8000
     e60:	005f86b3          	add	a3,t6,t0
     e64:	01400513          	li	a0,20
     e68:	00d706b3          	add	a3,a4,a3
     e6c:	005782b3          	add	t0,a5,t0
     e70:	00a68023          	sb	a0,0(a3)
     e74:	00570733          	add	a4,a4,t0
     e78:	00a70023          	sb	a0,0(a4) # 8000000 <_stack_end+0x7efa33c>
     e7c:	13f00713          	li	a4,319
     e80:	03d76263          	bltu	a4,t4,ea4 <__heap_size+0x6a4>
     e84:	08000737          	lui	a4,0x8000
     e88:	01df86b3          	add	a3,t6,t4
     e8c:	01400513          	li	a0,20
     e90:	00d706b3          	add	a3,a4,a3
     e94:	01d78eb3          	add	t4,a5,t4
     e98:	00a68023          	sb	a0,0(a3)
     e9c:	01d70733          	add	a4,a4,t4
     ea0:	00a70023          	sb	a0,0(a4) # 8000000 <_stack_end+0x7efa33c>
     ea4:	13f00713          	li	a4,319
     ea8:	03576263          	bltu	a4,s5,ecc <__heap_size+0x6cc>
     eac:	08000737          	lui	a4,0x8000
     eb0:	015f86b3          	add	a3,t6,s5
     eb4:	01400513          	li	a0,20
     eb8:	00d706b3          	add	a3,a4,a3
     ebc:	01578ab3          	add	s5,a5,s5
     ec0:	00a68023          	sb	a0,0(a3)
     ec4:	01570733          	add	a4,a4,s5
     ec8:	00a70023          	sb	a0,0(a4) # 8000000 <_stack_end+0x7efa33c>
     ecc:	13f00713          	li	a4,319
     ed0:	02976263          	bltu	a4,s1,ef4 <__heap_size+0x6f4>
     ed4:	08000737          	lui	a4,0x8000
     ed8:	009f86b3          	add	a3,t6,s1
     edc:	01400513          	li	a0,20
     ee0:	00d706b3          	add	a3,a4,a3
     ee4:	009784b3          	add	s1,a5,s1
     ee8:	00a68023          	sb	a0,0(a3)
     eec:	00970733          	add	a4,a4,s1
     ef0:	00a70023          	sb	a0,0(a4) # 8000000 <_stack_end+0x7efa33c>
     ef4:	13f00713          	li	a4,319
     ef8:	03476263          	bltu	a4,s4,f1c <__heap_size+0x71c>
     efc:	08000737          	lui	a4,0x8000
     f00:	014f86b3          	add	a3,t6,s4
     f04:	01400513          	li	a0,20
     f08:	00d706b3          	add	a3,a4,a3
     f0c:	01478a33          	add	s4,a5,s4
     f10:	00a68023          	sb	a0,0(a3)
     f14:	01470733          	add	a4,a4,s4
     f18:	00a70023          	sb	a0,0(a4) # 8000000 <_stack_end+0x7efa33c>
     f1c:	13f00713          	li	a4,319
     f20:	02776263          	bltu	a4,t2,f44 <__heap_size+0x744>
     f24:	08000737          	lui	a4,0x8000
     f28:	007f86b3          	add	a3,t6,t2
     f2c:	01400513          	li	a0,20
     f30:	00d706b3          	add	a3,a4,a3
     f34:	007783b3          	add	t2,a5,t2
     f38:	00a68023          	sb	a0,0(a3)
     f3c:	00770733          	add	a4,a4,t2
     f40:	00a70023          	sb	a0,0(a4) # 8000000 <_stack_end+0x7efa33c>
     f44:	13f00713          	li	a4,319
     f48:	03676263          	bltu	a4,s6,f6c <__heap_size+0x76c>
     f4c:	08000737          	lui	a4,0x8000
     f50:	016f86b3          	add	a3,t6,s6
     f54:	01400513          	li	a0,20
     f58:	00d706b3          	add	a3,a4,a3
     f5c:	01678b33          	add	s6,a5,s6
     f60:	00a68023          	sb	a0,0(a3)
     f64:	01670733          	add	a4,a4,s6
     f68:	00a70023          	sb	a0,0(a4) # 8000000 <_stack_end+0x7efa33c>
     f6c:	13f00713          	li	a4,319
     f70:	02876263          	bltu	a4,s0,f94 <__heap_size+0x794>
     f74:	08000737          	lui	a4,0x8000
     f78:	008f86b3          	add	a3,t6,s0
     f7c:	01400513          	li	a0,20
     f80:	00d706b3          	add	a3,a4,a3
     f84:	00878433          	add	s0,a5,s0
     f88:	00a68023          	sb	a0,0(a3)
     f8c:	00870733          	add	a4,a4,s0
     f90:	00a70023          	sb	a0,0(a4) # 8000000 <_stack_end+0x7efa33c>
     f94:	13f00713          	li	a4,319
     f98:	03276263          	bltu	a4,s2,fbc <__heap_size+0x7bc>
     f9c:	08000737          	lui	a4,0x8000
     fa0:	012f86b3          	add	a3,t6,s2
     fa4:	01400513          	li	a0,20
     fa8:	00d706b3          	add	a3,a4,a3
     fac:	01278933          	add	s2,a5,s2
     fb0:	00a68023          	sb	a0,0(a3)
     fb4:	01270733          	add	a4,a4,s2
     fb8:	00a70023          	sb	a0,0(a4) # 8000000 <_stack_end+0x7efa33c>
     fbc:	13f00713          	li	a4,319
     fc0:	03e76263          	bltu	a4,t5,fe4 <__heap_size+0x7e4>
     fc4:	08000737          	lui	a4,0x8000
     fc8:	01ef86b3          	add	a3,t6,t5
     fcc:	01400513          	li	a0,20
     fd0:	00d706b3          	add	a3,a4,a3
     fd4:	01e78f33          	add	t5,a5,t5
     fd8:	00a68023          	sb	a0,0(a3)
     fdc:	01e70733          	add	a4,a4,t5
     fe0:	00a70023          	sb	a0,0(a4) # 8000000 <_stack_end+0x7efa33c>
     fe4:	13f00713          	li	a4,319
     fe8:	957760e3          	bltu	a4,s7,928 <__heap_size+0x128>
     fec:	08000737          	lui	a4,0x8000
     ff0:	01fb86b3          	add	a3,s7,t6
     ff4:	01400513          	li	a0,20
     ff8:	00d706b3          	add	a3,a4,a3
     ffc:	00fb87b3          	add	a5,s7,a5
    1000:	00a68023          	sb	a0,0(a3)
    1004:	00f70733          	add	a4,a4,a5
    1008:	00a70023          	sb	a0,0(a4) # 8000000 <_stack_end+0x7efa33c>
    100c:	00812c83          	lw	s9,8(sp)
    1010:	91dff06f          	j	92c <__heap_size+0x12c>
    1014:	00458713          	addi	a4,a1,4
    1018:	1ae7e463          	bltu	a5,a4,11c0 <__heap_size+0x9c0>
    101c:	00000713          	li	a4,0
    1020:	00271793          	slli	a5,a4,0x2
    1024:	00e787b3          	add	a5,a5,a4
    1028:	00679793          	slli	a5,a5,0x6
    102c:	08000737          	lui	a4,0x8000
    1030:	010787b3          	add	a5,a5,a6
    1034:	00f707b3          	add	a5,a4,a5
    1038:	01400713          	li	a4,20
    103c:	00e78023          	sb	a4,0(a5)
    1040:	00558713          	addi	a4,a1,5
    1044:	1880006f          	j	11cc <__heap_size+0x9cc>
    1048:	00558713          	addi	a4,a1,5
    104c:	0ee7e263          	bltu	a5,a4,1130 <__heap_size+0x930>
    1050:	00000713          	li	a4,0
    1054:	00271793          	slli	a5,a4,0x2
    1058:	00e787b3          	add	a5,a5,a4
    105c:	00679793          	slli	a5,a5,0x6
    1060:	08000737          	lui	a4,0x8000
    1064:	00f606b3          	add	a3,a2,a5
    1068:	01400513          	li	a0,20
    106c:	00d706b3          	add	a3,a4,a3
    1070:	00f807b3          	add	a5,a6,a5
    1074:	00f70733          	add	a4,a4,a5
    1078:	00a68023          	sb	a0,0(a3)
    107c:	00a70023          	sb	a0,0(a4) # 8000000 <_stack_end+0x7efa33c>
    1080:	0ef00793          	li	a5,239
    1084:	00658713          	addi	a4,a1,6
    1088:	0ae7da63          	bge	a5,a4,113c <__heap_size+0x93c>
    108c:	00958793          	addi	a5,a1,9
    1090:	0ef00713          	li	a4,239
    1094:	0ef76063          	bltu	a4,a5,1174 <__heap_size+0x974>
    1098:	00000713          	li	a4,0
    109c:	00271793          	slli	a5,a4,0x2
    10a0:	00e787b3          	add	a5,a5,a4
    10a4:	00679793          	slli	a5,a5,0x6
    10a8:	08000737          	lui	a4,0x8000
    10ac:	00f606b3          	add	a3,a2,a5
    10b0:	01400513          	li	a0,20
    10b4:	00d706b3          	add	a3,a4,a3
    10b8:	00f807b3          	add	a5,a6,a5
    10bc:	00f70733          	add	a4,a4,a5
    10c0:	00a68023          	sb	a0,0(a3)
    10c4:	00a70023          	sb	a0,0(a4) # 8000000 <_stack_end+0x7efa33c>
    10c8:	0ef00793          	li	a5,239
    10cc:	00a58713          	addi	a4,a1,10
    10d0:	0ae7da63          	bge	a5,a4,1184 <__heap_size+0x984>
    10d4:	00d58593          	addi	a1,a1,13
    10d8:	0ef00793          	li	a5,239
    10dc:	90b7e8e3          	bltu	a5,a1,9ec <__heap_size+0x1ec>
    10e0:	00259793          	slli	a5,a1,0x2
    10e4:	00b787b3          	add	a5,a5,a1
    10e8:	00679793          	slli	a5,a5,0x6
    10ec:	00f606b3          	add	a3,a2,a5
    10f0:	08000737          	lui	a4,0x8000
    10f4:	01400613          	li	a2,20
    10f8:	00d706b3          	add	a3,a4,a3
    10fc:	00f807b3          	add	a5,a6,a5
    1100:	00c68023          	sb	a2,0(a3)
    1104:	00f70733          	add	a4,a4,a5
    1108:	00c70023          	sb	a2,0(a4) # 8000000 <_stack_end+0x7efa33c>
    110c:	8e1ff06f          	j	9ec <__heap_size+0x1ec>
    1110:	00558713          	addi	a4,a1,5
    1114:	12e7e263          	bltu	a5,a4,1238 <__heap_size+0xa38>
    1118:	080007b7          	lui	a5,0x8000
    111c:	00c787b3          	add	a5,a5,a2
    1120:	01400713          	li	a4,20
    1124:	00e78023          	sb	a4,0(a5) # 8000000 <_stack_end+0x7efa33c>
    1128:	00100793          	li	a5,1
    112c:	985ff06f          	j	ab0 <__heap_size+0x2b0>
    1130:	00658713          	addi	a4,a1,6
    1134:	12e7e263          	bltu	a5,a4,1258 <__heap_size+0xa58>
    1138:	00000713          	li	a4,0
    113c:	00271793          	slli	a5,a4,0x2
    1140:	00e787b3          	add	a5,a5,a4
    1144:	00679793          	slli	a5,a5,0x6
    1148:	08000737          	lui	a4,0x8000
    114c:	00f606b3          	add	a3,a2,a5
    1150:	01400513          	li	a0,20
    1154:	00d706b3          	add	a3,a4,a3
    1158:	00f807b3          	add	a5,a6,a5
    115c:	00f70733          	add	a4,a4,a5
    1160:	00a68023          	sb	a0,0(a3)
    1164:	00a70023          	sb	a0,0(a4) # 8000000 <_stack_end+0x7efa33c>
    1168:	0ef00793          	li	a5,239
    116c:	00758713          	addi	a4,a1,7
    1170:	0ee7da63          	bge	a5,a4,1264 <__heap_size+0xa64>
    1174:	00a58713          	addi	a4,a1,10
    1178:	0ef00793          	li	a5,239
    117c:	18e7ee63          	bltu	a5,a4,1318 <__heap_size+0xb18>
    1180:	00000713          	li	a4,0
    1184:	00271793          	slli	a5,a4,0x2
    1188:	00e787b3          	add	a5,a5,a4
    118c:	00679793          	slli	a5,a5,0x6
    1190:	08000737          	lui	a4,0x8000
    1194:	00f606b3          	add	a3,a2,a5
    1198:	01400513          	li	a0,20
    119c:	00d706b3          	add	a3,a4,a3
    11a0:	00f807b3          	add	a5,a6,a5
    11a4:	00f70733          	add	a4,a4,a5
    11a8:	00a68023          	sb	a0,0(a3)
    11ac:	00a70023          	sb	a0,0(a4) # 8000000 <_stack_end+0x7efa33c>
    11b0:	0ef00793          	li	a5,239
    11b4:	00b58713          	addi	a4,a1,11
    11b8:	16e7d663          	bge	a5,a4,1324 <__heap_size+0xb24>
    11bc:	831ff06f          	j	9ec <__heap_size+0x1ec>
    11c0:	00558713          	addi	a4,a1,5
    11c4:	18e7ee63          	bltu	a5,a4,1360 <__heap_size+0xb60>
    11c8:	00000713          	li	a4,0
    11cc:	00271793          	slli	a5,a4,0x2
    11d0:	00e787b3          	add	a5,a5,a4
    11d4:	00679793          	slli	a5,a5,0x6
    11d8:	08000737          	lui	a4,0x8000
    11dc:	010787b3          	add	a5,a5,a6
    11e0:	00f707b3          	add	a5,a4,a5
    11e4:	01400713          	li	a4,20
    11e8:	00e78023          	sb	a4,0(a5)
    11ec:	00658713          	addi	a4,a1,6
    11f0:	0ef00793          	li	a5,239
    11f4:	16e7dc63          	bge	a5,a4,136c <__heap_size+0xb6c>
    11f8:	00958793          	addi	a5,a1,9
    11fc:	0ef00713          	li	a4,239
    1200:	18f76c63          	bltu	a4,a5,1398 <__heap_size+0xb98>
    1204:	00000713          	li	a4,0
    1208:	00271793          	slli	a5,a4,0x2
    120c:	00e787b3          	add	a5,a5,a4
    1210:	00679793          	slli	a5,a5,0x6
    1214:	08000737          	lui	a4,0x8000
    1218:	010787b3          	add	a5,a5,a6
    121c:	00f707b3          	add	a5,a4,a5
    1220:	01400713          	li	a4,20
    1224:	00e78023          	sb	a4,0(a5)
    1228:	00a58713          	addi	a4,a1,10
    122c:	0ef00793          	li	a5,239
    1230:	16e7dc63          	bge	a5,a4,13a8 <__heap_size+0xba8>
    1234:	f8cff06f          	j	9c0 <__heap_size+0x1c0>
    1238:	00658713          	addi	a4,a1,6
    123c:	04e7ee63          	bltu	a5,a4,1298 <__heap_size+0xa98>
    1240:	080007b7          	lui	a5,0x8000
    1244:	00c787b3          	add	a5,a5,a2
    1248:	01400713          	li	a4,20
    124c:	00e78023          	sb	a4,0(a5) # 8000000 <_stack_end+0x7efa33c>
    1250:	00100793          	li	a5,1
    1254:	885ff06f          	j	ad8 <__heap_size+0x2d8>
    1258:	00758713          	addi	a4,a1,7
    125c:	04e7ee63          	bltu	a5,a4,12b8 <__heap_size+0xab8>
    1260:	00000713          	li	a4,0
    1264:	00271793          	slli	a5,a4,0x2
    1268:	00e787b3          	add	a5,a5,a4
    126c:	00679793          	slli	a5,a5,0x6
    1270:	08000737          	lui	a4,0x8000
    1274:	00f606b3          	add	a3,a2,a5
    1278:	01400513          	li	a0,20
    127c:	00d706b3          	add	a3,a4,a3
    1280:	00f807b3          	add	a5,a6,a5
    1284:	00f70733          	add	a4,a4,a5
    1288:	00a68023          	sb	a0,0(a3)
    128c:	00a70023          	sb	a0,0(a4) # 8000000 <_stack_end+0x7efa33c>
    1290:	00858713          	addi	a4,a1,8
    1294:	0300006f          	j	12c4 <__heap_size+0xac4>
    1298:	00758713          	addi	a4,a1,7
    129c:	04e7ee63          	bltu	a5,a4,12f8 <__heap_size+0xaf8>
    12a0:	080007b7          	lui	a5,0x8000
    12a4:	00c787b3          	add	a5,a5,a2
    12a8:	01400713          	li	a4,20
    12ac:	00e78023          	sb	a4,0(a5) # 8000000 <_stack_end+0x7efa33c>
    12b0:	00858793          	addi	a5,a1,8
    12b4:	84dff06f          	j	b00 <__heap_size+0x300>
    12b8:	00858713          	addi	a4,a1,8
    12bc:	dce7e8e3          	bltu	a5,a4,108c <__heap_size+0x88c>
    12c0:	00000713          	li	a4,0
    12c4:	00271793          	slli	a5,a4,0x2
    12c8:	00e787b3          	add	a5,a5,a4
    12cc:	00679793          	slli	a5,a5,0x6
    12d0:	08000737          	lui	a4,0x8000
    12d4:	00f606b3          	add	a3,a2,a5
    12d8:	01400513          	li	a0,20
    12dc:	00d706b3          	add	a3,a4,a3
    12e0:	00f807b3          	add	a5,a6,a5
    12e4:	00f70733          	add	a4,a4,a5
    12e8:	00a68023          	sb	a0,0(a3)
    12ec:	00a70023          	sb	a0,0(a4) # 8000000 <_stack_end+0x7efa33c>
    12f0:	00958713          	addi	a4,a1,9
    12f4:	da9ff06f          	j	109c <__heap_size+0x89c>
    12f8:	00858713          	addi	a4,a1,8
    12fc:	0ce7ee63          	bltu	a5,a4,13d8 <__heap_size+0xbd8>
    1300:	080007b7          	lui	a5,0x8000
    1304:	00c787b3          	add	a5,a5,a2
    1308:	01400713          	li	a4,20
    130c:	00e78023          	sb	a4,0(a5) # 8000000 <_stack_end+0x7efa33c>
    1310:	00958793          	addi	a5,a1,9
    1314:	815ff06f          	j	b28 <__heap_size+0x328>
    1318:	00b58713          	addi	a4,a1,11
    131c:	10e7ec63          	bltu	a5,a4,1434 <__heap_size+0xc34>
    1320:	00000713          	li	a4,0
    1324:	00271793          	slli	a5,a4,0x2
    1328:	00e787b3          	add	a5,a5,a4
    132c:	00679793          	slli	a5,a5,0x6
    1330:	08000737          	lui	a4,0x8000
    1334:	00f606b3          	add	a3,a2,a5
    1338:	01400513          	li	a0,20
    133c:	00d706b3          	add	a3,a4,a3
    1340:	00f807b3          	add	a5,a6,a5
    1344:	00f70733          	add	a4,a4,a5
    1348:	00a68023          	sb	a0,0(a3)
    134c:	00a70023          	sb	a0,0(a4) # 8000000 <_stack_end+0x7efa33c>
    1350:	0f000793          	li	a5,240
    1354:	00c58713          	addi	a4,a1,12
    1358:	0ef71463          	bne	a4,a5,1440 <__heap_size+0xc40>
    135c:	e90ff06f          	j	9ec <__heap_size+0x1ec>
    1360:	00658713          	addi	a4,a1,6
    1364:	10e7e663          	bltu	a5,a4,1470 <__heap_size+0xc70>
    1368:	00000713          	li	a4,0
    136c:	00271793          	slli	a5,a4,0x2
    1370:	00e787b3          	add	a5,a5,a4
    1374:	00679793          	slli	a5,a5,0x6
    1378:	08000737          	lui	a4,0x8000
    137c:	010787b3          	add	a5,a5,a6
    1380:	00f707b3          	add	a5,a4,a5
    1384:	01400713          	li	a4,20
    1388:	00e78023          	sb	a4,0(a5)
    138c:	00758713          	addi	a4,a1,7
    1390:	0ef00793          	li	a5,239
    1394:	0ee7d463          	bge	a5,a4,147c <__heap_size+0xc7c>
    1398:	00a58713          	addi	a4,a1,10
    139c:	0ef00793          	li	a5,239
    13a0:	04e7ec63          	bltu	a5,a4,13f8 <__heap_size+0xbf8>
    13a4:	00000713          	li	a4,0
    13a8:	00271793          	slli	a5,a4,0x2
    13ac:	00e787b3          	add	a5,a5,a4
    13b0:	00679793          	slli	a5,a5,0x6
    13b4:	08000737          	lui	a4,0x8000
    13b8:	010787b3          	add	a5,a5,a6
    13bc:	00f707b3          	add	a5,a4,a5
    13c0:	01400713          	li	a4,20
    13c4:	00e78023          	sb	a4,0(a5)
    13c8:	00b58713          	addi	a4,a1,11
    13cc:	0ef00793          	li	a5,239
    13d0:	02e7da63          	bge	a5,a4,1404 <__heap_size+0xc04>
    13d4:	e18ff06f          	j	9ec <__heap_size+0x1ec>
    13d8:	00958713          	addi	a4,a1,9
    13dc:	0ce7e463          	bltu	a5,a4,14a4 <__heap_size+0xca4>
    13e0:	080007b7          	lui	a5,0x8000
    13e4:	00c787b3          	add	a5,a5,a2
    13e8:	01400713          	li	a4,20
    13ec:	00e78023          	sb	a4,0(a5) # 8000000 <_stack_end+0x7efa33c>
    13f0:	00a58793          	addi	a5,a1,10
    13f4:	f5cff06f          	j	b50 <__heap_size+0x350>
    13f8:	00b58713          	addi	a4,a1,11
    13fc:	d8e7ec63          	bltu	a5,a4,994 <__heap_size+0x194>
    1400:	00000713          	li	a4,0
    1404:	00271793          	slli	a5,a4,0x2
    1408:	00e787b3          	add	a5,a5,a4
    140c:	00679793          	slli	a5,a5,0x6
    1410:	08000737          	lui	a4,0x8000
    1414:	010787b3          	add	a5,a5,a6
    1418:	00f707b3          	add	a5,a4,a5
    141c:	01400713          	li	a4,20
    1420:	00e78023          	sb	a4,0(a5)
    1424:	00c58713          	addi	a4,a1,12
    1428:	0f000793          	li	a5,240
    142c:	d6f71a63          	bne	a4,a5,9a0 <__heap_size+0x1a0>
    1430:	dbcff06f          	j	9ec <__heap_size+0x1ec>
    1434:	00c58713          	addi	a4,a1,12
    1438:	c8e7eee3          	bltu	a5,a4,10d4 <__heap_size+0x8d4>
    143c:	00000713          	li	a4,0
    1440:	00271793          	slli	a5,a4,0x2
    1444:	00e787b3          	add	a5,a5,a4
    1448:	00679793          	slli	a5,a5,0x6
    144c:	08000737          	lui	a4,0x8000
    1450:	00f606b3          	add	a3,a2,a5
    1454:	01400513          	li	a0,20
    1458:	00d706b3          	add	a3,a4,a3
    145c:	00f807b3          	add	a5,a6,a5
    1460:	00a68023          	sb	a0,0(a3)
    1464:	00f70733          	add	a4,a4,a5
    1468:	00a70023          	sb	a0,0(a4) # 8000000 <_stack_end+0x7efa33c>
    146c:	c69ff06f          	j	10d4 <__heap_size+0x8d4>
    1470:	00758713          	addi	a4,a1,7
    1474:	04e7e863          	bltu	a5,a4,14c4 <__heap_size+0xcc4>
    1478:	00000713          	li	a4,0
    147c:	00271793          	slli	a5,a4,0x2
    1480:	00e787b3          	add	a5,a5,a4
    1484:	00679793          	slli	a5,a5,0x6
    1488:	08000737          	lui	a4,0x8000
    148c:	010787b3          	add	a5,a5,a6
    1490:	00f707b3          	add	a5,a4,a5
    1494:	01400713          	li	a4,20
    1498:	00e78023          	sb	a4,0(a5)
    149c:	00858713          	addi	a4,a1,8
    14a0:	0300006f          	j	14d0 <__heap_size+0xcd0>
    14a4:	00a58713          	addi	a4,a1,10
    14a8:	04e7e863          	bltu	a5,a4,14f8 <__heap_size+0xcf8>
    14ac:	080007b7          	lui	a5,0x8000
    14b0:	00c787b3          	add	a5,a5,a2
    14b4:	01400713          	li	a4,20
    14b8:	00e78023          	sb	a4,0(a5) # 8000000 <_stack_end+0x7efa33c>
    14bc:	00100793          	li	a5,1
    14c0:	eb8ff06f          	j	b78 <__heap_size+0x378>
    14c4:	00858713          	addi	a4,a1,8
    14c8:	d2e7e8e3          	bltu	a5,a4,11f8 <__heap_size+0x9f8>
    14cc:	00000713          	li	a4,0
    14d0:	00271793          	slli	a5,a4,0x2
    14d4:	00e787b3          	add	a5,a5,a4
    14d8:	00679793          	slli	a5,a5,0x6
    14dc:	08000737          	lui	a4,0x8000
    14e0:	010787b3          	add	a5,a5,a6
    14e4:	00f707b3          	add	a5,a4,a5
    14e8:	01400713          	li	a4,20
    14ec:	00e78023          	sb	a4,0(a5)
    14f0:	00958713          	addi	a4,a1,9
    14f4:	d15ff06f          	j	1208 <__heap_size+0xa08>
    14f8:	00b58713          	addi	a4,a1,11
    14fc:	00e7ee63          	bltu	a5,a4,1518 <__heap_size+0xd18>
    1500:	080007b7          	lui	a5,0x8000
    1504:	00c787b3          	add	a5,a5,a2
    1508:	01400713          	li	a4,20
    150c:	00e78023          	sb	a4,0(a5) # 8000000 <_stack_end+0x7efa33c>
    1510:	00100793          	li	a5,1
    1514:	e8cff06f          	j	ba0 <__heap_size+0x3a0>
    1518:	00c58793          	addi	a5,a1,12
    151c:	0ef00713          	li	a4,239
    1520:	e8f76e63          	bltu	a4,a5,bbc <__heap_size+0x3bc>
    1524:	080007b7          	lui	a5,0x8000
    1528:	00c787b3          	add	a5,a5,a2
    152c:	01400713          	li	a4,20
    1530:	00e78023          	sb	a4,0(a5) # 8000000 <_stack_end+0x7efa33c>
    1534:	00100593          	li	a1,1
    1538:	e90ff06f          	j	bc8 <__heap_size+0x3c8>
    153c:	00271793          	slli	a5,a4,0x2
    1540:	00e787b3          	add	a5,a5,a4
    1544:	00679793          	slli	a5,a5,0x6
    1548:	08000737          	lui	a4,0x8000
    154c:	00f407b3          	add	a5,s0,a5
    1550:	00f707b3          	add	a5,a4,a5
    1554:	f9c00713          	li	a4,-100
    1558:	00e78023          	sb	a4,0(a5)
    155c:	13f00793          	li	a5,319
    1560:	8127eae3          	bltu	a5,s2,d74 <__heap_size+0x574>
    1564:	00958793          	addi	a5,a1,9
    1568:	fe8ff06f          	j	d50 <__heap_size+0x550>
    156c:	a4a7ea63          	bltu	a5,a0,7c0 <draw_snake_body+0x43c>
    1570:	a24ff06f          	j	794 <draw_snake_body+0x410>
    1574:	13f00713          	li	a4,319
    1578:	f8777e63          	bgeu	a4,t2,d14 <__heap_size+0x514>
    157c:	fc877a63          	bgeu	a4,s0,d50 <__heap_size+0x550>
    1580:	fddff06f          	j	155c <__heap_size+0xd5c>
    1584:	080007b7          	lui	a5,0x8000
    1588:	007787b3          	add	a5,a5,t2
    158c:	f9c00713          	li	a4,-100
    1590:	00e78023          	sb	a4,0(a5) # 8000000 <_stack_end+0x7efa33c>
    1594:	00a58793          	addi	a5,a1,10
    1598:	f84ff06f          	j	d1c <__heap_size+0x51c>
    159c:	00a58793          	addi	a5,a1,10
    15a0:	00279713          	slli	a4,a5,0x2
    15a4:	00f70733          	add	a4,a4,a5
    15a8:	080006b7          	lui	a3,0x8000
    15ac:	00671713          	slli	a4,a4,0x6
    15b0:	f9c00893          	li	a7,-100
    15b4:	00a68333          	add	t1,a3,a0
    15b8:	00a70733          	add	a4,a4,a0
    15bc:	000017b7          	lui	a5,0x1
    15c0:	01130023          	sb	a7,0(t1)
    15c4:	00e686b3          	add	a3,a3,a4
    15c8:	04078793          	addi	a5,a5,64 # 1040 <__heap_size+0x840>
    15cc:	01168023          	sb	a7,0(a3) # 8000000 <_stack_end+0x7efa33c>
    15d0:	00ff87b3          	add	a5,t6,a5
    15d4:	a00ff06f          	j	7d4 <draw_snake_body+0x450>
    15d8:	080007b7          	lui	a5,0x8000
    15dc:	01e787b3          	add	a5,a5,t5
    15e0:	f9c00713          	li	a4,-100
    15e4:	00e78023          	sb	a4,0(a5) # 8000000 <_stack_end+0x7efa33c>
    15e8:	00a58793          	addi	a5,a1,10
    15ec:	918ff06f          	j	704 <draw_snake_body+0x380>
    15f0:	00271793          	slli	a5,a4,0x2
    15f4:	00e787b3          	add	a5,a5,a4
    15f8:	00679793          	slli	a5,a5,0x6
    15fc:	08000737          	lui	a4,0x8000
    1600:	013787b3          	add	a5,a5,s3
    1604:	00f707b3          	add	a5,a4,a5
    1608:	f9c00713          	li	a4,-100
    160c:	00e78023          	sb	a4,0(a5)
    1610:	00958793          	addi	a5,a1,9
    1614:	00279713          	slli	a4,a5,0x2
    1618:	00f707b3          	add	a5,a4,a5
    161c:	00679793          	slli	a5,a5,0x6
    1620:	08000737          	lui	a4,0x8000
    1624:	00f287b3          	add	a5,t0,a5
    1628:	00f707b3          	add	a5,a4,a5
    162c:	f9c00713          	li	a4,-100
    1630:	00e78023          	sb	a4,0(a5)
    1634:	00a58793          	addi	a5,a1,10
    1638:	e4cff06f          	j	c84 <__heap_size+0x484>
    163c:	13f00793          	li	a5,319
    1640:	98a7e063          	bltu	a5,a0,7c0 <draw_snake_body+0x43c>
    1644:	00a58793          	addi	a5,a1,10
    1648:	958ff06f          	j	7a0 <draw_snake_body+0x41c>
    164c:	13f00793          	li	a5,319
    1650:	f3e7fa63          	bgeu	a5,t5,d84 <__heap_size+0x584>
    1654:	00f50713          	addi	a4,a0,15
    1658:	01050513          	addi	a0,a0,16
    165c:	9107f463          	bgeu	a5,a6,764 <draw_snake_body+0x3e0>
    1660:	8fcff06f          	j	75c <draw_snake_body+0x3d8>
    1664:	13f00713          	li	a4,319
    1668:	95077c63          	bgeu	a4,a6,7c0 <draw_snake_body+0x43c>
    166c:	00f50693          	addi	a3,a0,15
    1670:	01050513          	addi	a0,a0,16
    1674:	fcd774e3          	bgeu	a4,a3,163c <__heap_size+0xe3c>
    1678:	92a77463          	bgeu	a4,a0,7a0 <draw_snake_body+0x41c>
    167c:	944ff06f          	j	7c0 <draw_snake_body+0x43c>

00001680 <draw_snake_head>:
    1680:	fd010113          	addi	sp,sp,-48
    1684:	01812623          	sw	s8,12(sp)
    1688:	00158c13          	addi	s8,a1,1
    168c:	002c1793          	slli	a5,s8,0x2
    1690:	018787b3          	add	a5,a5,s8
    1694:	00679f93          	slli	t6,a5,0x6
    1698:	00d50f13          	addi	t5,a0,13
    169c:	01ff07b3          	add	a5,t5,t6
    16a0:	080006b7          	lui	a3,0x8000
    16a4:	02812623          	sw	s0,44(sp)
    16a8:	02912423          	sw	s1,40(sp)
    16ac:	03212223          	sw	s2,36(sp)
    16b0:	03312023          	sw	s3,32(sp)
    16b4:	01412e23          	sw	s4,28(sp)
    16b8:	01512c23          	sw	s5,24(sp)
    16bc:	01612a23          	sw	s6,20(sp)
    16c0:	01712823          	sw	s7,16(sp)
    16c4:	01912423          	sw	s9,8(sp)
    16c8:	00060b13          	mv	s6,a2
    16cc:	00f686b3          	add	a3,a3,a5
    16d0:	000c0713          	mv	a4,s8
    16d4:	00f58e93          	addi	t4,a1,15
    16d8:	00150813          	addi	a6,a0,1
    16dc:	00250c93          	addi	s9,a0,2
    16e0:	00350b93          	addi	s7,a0,3
    16e4:	00450a93          	addi	s5,a0,4
    16e8:	00550a13          	addi	s4,a0,5
    16ec:	00650993          	addi	s3,a0,6
    16f0:	00750913          	addi	s2,a0,7
    16f4:	00850493          	addi	s1,a0,8
    16f8:	00950413          	addi	s0,a0,9
    16fc:	00a50613          	addi	a2,a0,10
    1700:	00b50393          	addi	t2,a0,11
    1704:	00c50293          	addi	t0,a0,12
    1708:	00e50893          	addi	a7,a0,14
    170c:	0ef00e13          	li	t3,239
    1710:	13f00793          	li	a5,319
    1714:	01f00313          	li	t1,31
    1718:	06ee6a63          	bltu	t3,a4,178c <draw_snake_head+0x10c>
    171c:	0107e463          	bltu	a5,a6,1724 <draw_snake_head+0xa4>
    1720:	fe668a23          	sb	t1,-12(a3) # 7fffff4 <_stack_end+0x7efa330>
    1724:	0197e463          	bltu	a5,s9,172c <draw_snake_head+0xac>
    1728:	fe668aa3          	sb	t1,-11(a3)
    172c:	0177e463          	bltu	a5,s7,1734 <draw_snake_head+0xb4>
    1730:	fe668b23          	sb	t1,-10(a3)
    1734:	0157e463          	bltu	a5,s5,173c <draw_snake_head+0xbc>
    1738:	fe668ba3          	sb	t1,-9(a3)
    173c:	0147e463          	bltu	a5,s4,1744 <draw_snake_head+0xc4>
    1740:	fe668c23          	sb	t1,-8(a3)
    1744:	0137e463          	bltu	a5,s3,174c <draw_snake_head+0xcc>
    1748:	fe668ca3          	sb	t1,-7(a3)
    174c:	0127e463          	bltu	a5,s2,1754 <draw_snake_head+0xd4>
    1750:	fe668d23          	sb	t1,-6(a3)
    1754:	0097e463          	bltu	a5,s1,175c <draw_snake_head+0xdc>
    1758:	fe668da3          	sb	t1,-5(a3)
    175c:	0087e463          	bltu	a5,s0,1764 <draw_snake_head+0xe4>
    1760:	fe668e23          	sb	t1,-4(a3)
    1764:	00c7e463          	bltu	a5,a2,176c <draw_snake_head+0xec>
    1768:	fe668ea3          	sb	t1,-3(a3)
    176c:	0077e463          	bltu	a5,t2,1774 <draw_snake_head+0xf4>
    1770:	fe668f23          	sb	t1,-2(a3)
    1774:	0057e463          	bltu	a5,t0,177c <draw_snake_head+0xfc>
    1778:	fe668fa3          	sb	t1,-1(a3)
    177c:	01e7e463          	bltu	a5,t5,1784 <draw_snake_head+0x104>
    1780:	00668023          	sb	t1,0(a3)
    1784:	0117e463          	bltu	a5,a7,178c <draw_snake_head+0x10c>
    1788:	006680a3          	sb	t1,1(a3)
    178c:	00170713          	addi	a4,a4,1 # 8000001 <_stack_end+0x7efa33d>
    1790:	14068693          	addi	a3,a3,320
    1794:	f8ee92e3          	bne	t4,a4,1718 <draw_snake_head+0x98>
    1798:	000017b7          	lui	a5,0x1
    179c:	04078793          	addi	a5,a5,64 # 1040 <__heap_size+0x840>
    17a0:	00e58713          	addi	a4,a1,14
    17a4:	00ff87b3          	add	a5,t6,a5
    17a8:	500c4863          	bltz	s8,1cb8 <draw_snake_head+0x638>
    17ac:	0ef00693          	li	a3,239
    17b0:	0586d463          	bge	a3,s8,17f8 <draw_snake_head+0x178>
    17b4:	13f00793          	li	a5,319
    17b8:	2d07f2e3          	bgeu	a5,a6,227c <draw_snake_head+0xbfc>
    17bc:	2317ea63          	bltu	a5,a7,19f0 <draw_snake_head+0x370>
    17c0:	00758793          	addi	a5,a1,7
    17c4:	0ef00713          	li	a4,239
    17c8:	76f764e3          	bltu	a4,a5,2730 <draw_snake_head+0x10b0>
    17cc:	00000713          	li	a4,0
    17d0:	00271793          	slli	a5,a4,0x2
    17d4:	00e787b3          	add	a5,a5,a4
    17d8:	00679793          	slli	a5,a5,0x6
    17dc:	08000737          	lui	a4,0x8000
    17e0:	011787b3          	add	a5,a5,a7
    17e4:	00f707b3          	add	a5,a4,a5
    17e8:	01400713          	li	a4,20
    17ec:	00e78023          	sb	a4,0(a5)
    17f0:	00858713          	addi	a4,a1,8
    17f4:	74d0006f          	j	2740 <draw_snake_head+0x10c0>
    17f8:	36e6cae3          	blt	a3,a4,236c <draw_snake_head+0xcec>
    17fc:	13f00713          	li	a4,319
    1800:	03976263          	bltu	a4,s9,1824 <draw_snake_head+0x1a4>
    1804:	08000737          	lui	a4,0x8000
    1808:	019f86b3          	add	a3,t6,s9
    180c:	01400313          	li	t1,20
    1810:	00d706b3          	add	a3,a4,a3
    1814:	01978cb3          	add	s9,a5,s9
    1818:	00668023          	sb	t1,0(a3)
    181c:	01970733          	add	a4,a4,s9
    1820:	00670023          	sb	t1,0(a4) # 8000000 <_stack_end+0x7efa33c>
    1824:	13f00713          	li	a4,319
    1828:	03776263          	bltu	a4,s7,184c <draw_snake_head+0x1cc>
    182c:	08000737          	lui	a4,0x8000
    1830:	017f86b3          	add	a3,t6,s7
    1834:	01400313          	li	t1,20
    1838:	00d706b3          	add	a3,a4,a3
    183c:	01778bb3          	add	s7,a5,s7
    1840:	00668023          	sb	t1,0(a3)
    1844:	01770733          	add	a4,a4,s7
    1848:	00670023          	sb	t1,0(a4) # 8000000 <_stack_end+0x7efa33c>
    184c:	13f00713          	li	a4,319
    1850:	03576263          	bltu	a4,s5,1874 <draw_snake_head+0x1f4>
    1854:	08000737          	lui	a4,0x8000
    1858:	015f86b3          	add	a3,t6,s5
    185c:	01400313          	li	t1,20
    1860:	00d706b3          	add	a3,a4,a3
    1864:	01578ab3          	add	s5,a5,s5
    1868:	00668023          	sb	t1,0(a3)
    186c:	01570733          	add	a4,a4,s5
    1870:	00670023          	sb	t1,0(a4) # 8000000 <_stack_end+0x7efa33c>
    1874:	13f00713          	li	a4,319
    1878:	03476263          	bltu	a4,s4,189c <draw_snake_head+0x21c>
    187c:	08000737          	lui	a4,0x8000
    1880:	014f86b3          	add	a3,t6,s4
    1884:	01400313          	li	t1,20
    1888:	00d706b3          	add	a3,a4,a3
    188c:	01478a33          	add	s4,a5,s4
    1890:	00668023          	sb	t1,0(a3)
    1894:	01470733          	add	a4,a4,s4
    1898:	00670023          	sb	t1,0(a4) # 8000000 <_stack_end+0x7efa33c>
    189c:	13f00713          	li	a4,319
    18a0:	03376263          	bltu	a4,s3,18c4 <draw_snake_head+0x244>
    18a4:	08000737          	lui	a4,0x8000
    18a8:	013f86b3          	add	a3,t6,s3
    18ac:	01400313          	li	t1,20
    18b0:	00d706b3          	add	a3,a4,a3
    18b4:	013789b3          	add	s3,a5,s3
    18b8:	00668023          	sb	t1,0(a3)
    18bc:	01370733          	add	a4,a4,s3
    18c0:	00670023          	sb	t1,0(a4) # 8000000 <_stack_end+0x7efa33c>
    18c4:	13f00713          	li	a4,319
    18c8:	03276263          	bltu	a4,s2,18ec <draw_snake_head+0x26c>
    18cc:	08000737          	lui	a4,0x8000
    18d0:	012f86b3          	add	a3,t6,s2
    18d4:	01400313          	li	t1,20
    18d8:	00d706b3          	add	a3,a4,a3
    18dc:	01278933          	add	s2,a5,s2
    18e0:	00668023          	sb	t1,0(a3)
    18e4:	01270733          	add	a4,a4,s2
    18e8:	00670023          	sb	t1,0(a4) # 8000000 <_stack_end+0x7efa33c>
    18ec:	13f00713          	li	a4,319
    18f0:	02976263          	bltu	a4,s1,1914 <draw_snake_head+0x294>
    18f4:	08000737          	lui	a4,0x8000
    18f8:	009f86b3          	add	a3,t6,s1
    18fc:	01400313          	li	t1,20
    1900:	00d706b3          	add	a3,a4,a3
    1904:	009784b3          	add	s1,a5,s1
    1908:	00668023          	sb	t1,0(a3)
    190c:	00970733          	add	a4,a4,s1
    1910:	00670023          	sb	t1,0(a4) # 8000000 <_stack_end+0x7efa33c>
    1914:	13f00713          	li	a4,319
    1918:	02876263          	bltu	a4,s0,193c <draw_snake_head+0x2bc>
    191c:	08000737          	lui	a4,0x8000
    1920:	008f86b3          	add	a3,t6,s0
    1924:	01400313          	li	t1,20
    1928:	00d706b3          	add	a3,a4,a3
    192c:	00878433          	add	s0,a5,s0
    1930:	00668023          	sb	t1,0(a3)
    1934:	00870733          	add	a4,a4,s0
    1938:	00670023          	sb	t1,0(a4) # 8000000 <_stack_end+0x7efa33c>
    193c:	13f00713          	li	a4,319
    1940:	02c76263          	bltu	a4,a2,1964 <draw_snake_head+0x2e4>
    1944:	08000737          	lui	a4,0x8000
    1948:	00cf86b3          	add	a3,t6,a2
    194c:	01400313          	li	t1,20
    1950:	00d706b3          	add	a3,a4,a3
    1954:	00c78633          	add	a2,a5,a2
    1958:	00668023          	sb	t1,0(a3)
    195c:	00c70733          	add	a4,a4,a2
    1960:	00670023          	sb	t1,0(a4) # 8000000 <_stack_end+0x7efa33c>
    1964:	13f00713          	li	a4,319
    1968:	02776263          	bltu	a4,t2,198c <draw_snake_head+0x30c>
    196c:	08000737          	lui	a4,0x8000
    1970:	007f86b3          	add	a3,t6,t2
    1974:	01400613          	li	a2,20
    1978:	00d706b3          	add	a3,a4,a3
    197c:	007783b3          	add	t2,a5,t2
    1980:	00c68023          	sb	a2,0(a3)
    1984:	00770733          	add	a4,a4,t2
    1988:	00c70023          	sb	a2,0(a4) # 8000000 <_stack_end+0x7efa33c>
    198c:	13f00713          	li	a4,319
    1990:	02576263          	bltu	a4,t0,19b4 <draw_snake_head+0x334>
    1994:	08000737          	lui	a4,0x8000
    1998:	005f86b3          	add	a3,t6,t0
    199c:	01400613          	li	a2,20
    19a0:	00d706b3          	add	a3,a4,a3
    19a4:	005782b3          	add	t0,a5,t0
    19a8:	00c68023          	sb	a2,0(a3)
    19ac:	00570733          	add	a4,a4,t0
    19b0:	00c70023          	sb	a2,0(a4) # 8000000 <_stack_end+0x7efa33c>
    19b4:	13f00713          	li	a4,319
    19b8:	03e76263          	bltu	a4,t5,19dc <draw_snake_head+0x35c>
    19bc:	080006b7          	lui	a3,0x8000
    19c0:	01ff0733          	add	a4,t5,t6
    19c4:	01400613          	li	a2,20
    19c8:	00e68733          	add	a4,a3,a4
    19cc:	00ff0f33          	add	t5,t5,a5
    19d0:	00c70023          	sb	a2,0(a4)
    19d4:	01e686b3          	add	a3,a3,t5
    19d8:	00c68023          	sb	a2,0(a3) # 8000000 <_stack_end+0x7efa33c>
    19dc:	13f00793          	li	a5,319
    19e0:	0107e463          	bltu	a5,a6,19e8 <draw_snake_head+0x368>
    19e4:	33c0106f          	j	2d20 <draw_snake_head+0x16a0>
    19e8:	00258713          	addi	a4,a1,2
    19ec:	2f17f463          	bgeu	a5,a7,1cd4 <draw_snake_head+0x654>
    19f0:	f9cb0713          	addi	a4,s6,-100
    19f4:	0ff77713          	zext.b	a4,a4
    19f8:	000067b7          	lui	a5,0x6
    19fc:	00271713          	slli	a4,a4,0x2
    1a00:	9b478793          	addi	a5,a5,-1612 # 59b4 <CSWTCH.12>
    1a04:	00e787b3          	add	a5,a5,a4
    1a08:	0907a683          	lw	a3,144(a5)
    1a0c:	0d87a703          	lw	a4,216(a5)
    1a10:	13f00613          	li	a2,319
    1a14:	00d506b3          	add	a3,a0,a3
    1a18:	ffe68893          	addi	a7,a3,-2
    1a1c:	0007a303          	lw	t1,0(a5)
    1a20:	0487a803          	lw	a6,72(a5)
    1a24:	00e58733          	add	a4,a1,a4
    1a28:	fff68413          	addi	s0,a3,-1
    1a2c:	00168e93          	addi	t4,a3,1
    1a30:	00268f13          	addi	t5,a3,2
    1a34:	2d167463          	bgeu	a2,a7,1cfc <draw_snake_head+0x67c>
    1a38:	56867463          	bgeu	a2,s0,1fa0 <draw_snake_head+0x920>
    1a3c:	0ed666e3          	bltu	a2,a3,2328 <draw_snake_head+0xca8>
    1a40:	ffe70613          	addi	a2,a4,-2
    1a44:	0ef00793          	li	a5,239
    1a48:	02c7e063          	bltu	a5,a2,1a68 <draw_snake_head+0x3e8>
    1a4c:	00261793          	slli	a5,a2,0x2
    1a50:	00c787b3          	add	a5,a5,a2
    1a54:	00679793          	slli	a5,a5,0x6
    1a58:	08000637          	lui	a2,0x8000
    1a5c:	00f607b3          	add	a5,a2,a5
    1a60:	fff00613          	li	a2,-1
    1a64:	00c78023          	sb	a2,0(a5)
    1a68:	fff70613          	addi	a2,a4,-1
    1a6c:	00065463          	bgez	a2,1a74 <draw_snake_head+0x3f4>
    1a70:	4d80106f          	j	2f48 <draw_snake_head+0x18c8>
    1a74:	0ef00e13          	li	t3,239
    1a78:	00ce4463          	blt	t3,a2,1a80 <draw_snake_head+0x400>
    1a7c:	4800106f          	j	2efc <draw_snake_head+0x187c>
    1a80:	00075463          	bgez	a4,1a88 <draw_snake_head+0x408>
    1a84:	4540106f          	j	2ed8 <draw_snake_head+0x1858>
    1a88:	0ef00793          	li	a5,239
    1a8c:	0ae7cc63          	blt	a5,a4,1b44 <draw_snake_head+0x4c4>
    1a90:	00271793          	slli	a5,a4,0x2
    1a94:	00e78633          	add	a2,a5,a4
    1a98:	00661613          	slli	a2,a2,0x6
    1a9c:	080008b7          	lui	a7,0x8000
    1aa0:	01d60633          	add	a2,a2,t4
    1aa4:	00c88633          	add	a2,a7,a2
    1aa8:	fff00893          	li	a7,-1
    1aac:	01160023          	sb	a7,0(a2) # 8000000 <_stack_end+0x7efa33c>
    1ab0:	00e787b3          	add	a5,a5,a4
    1ab4:	00679793          	slli	a5,a5,0x6
    1ab8:	01e787b3          	add	a5,a5,t5
    1abc:	08000637          	lui	a2,0x8000
    1ac0:	00f607b3          	add	a5,a2,a5
    1ac4:	fff00e13          	li	t3,-1
    1ac8:	01c78023          	sb	t3,0(a5)
    1acc:	13f00893          	li	a7,319
    1ad0:	00170793          	addi	a5,a4,1
    1ad4:	00d8f463          	bgeu	a7,a3,1adc <draw_snake_head+0x45c>
    1ad8:	3cc0106f          	j	2ea4 <draw_snake_head+0x1824>
    1adc:	0007d463          	bgez	a5,1ae4 <draw_snake_head+0x464>
    1ae0:	5440106f          	j	3024 <draw_snake_head+0x19a4>
    1ae4:	0ef00893          	li	a7,239
    1ae8:	04f8ce63          	blt	a7,a5,1b44 <draw_snake_head+0x4c4>
    1aec:	14000893          	li	a7,320
    1af0:	031788b3          	mul	a7,a5,a7
    1af4:	01160633          	add	a2,a2,a7
    1af8:	01c60023          	sb	t3,0(a2) # 8000000 <_stack_end+0x7efa33c>
    1afc:	00279613          	slli	a2,a5,0x2
    1b00:	00f607b3          	add	a5,a2,a5
    1b04:	00679793          	slli	a5,a5,0x6
    1b08:	08000637          	lui	a2,0x8000
    1b0c:	01d787b3          	add	a5,a5,t4
    1b10:	00f607b3          	add	a5,a2,a5
    1b14:	fff00613          	li	a2,-1
    1b18:	00c78023          	sb	a2,0(a5)
    1b1c:	00270613          	addi	a2,a4,2
    1b20:	0ef00793          	li	a5,239
    1b24:	02c7e063          	bltu	a5,a2,1b44 <draw_snake_head+0x4c4>
    1b28:	00261793          	slli	a5,a2,0x2
    1b2c:	00c787b3          	add	a5,a5,a2
    1b30:	00679793          	slli	a5,a5,0x6
    1b34:	08000637          	lui	a2,0x8000
    1b38:	00f607b3          	add	a5,a2,a5
    1b3c:	fff00613          	li	a2,-1
    1b40:	00c78023          	sb	a2,0(a5)
    1b44:	00a308b3          	add	a7,t1,a0
    1b48:	ffe88613          	addi	a2,a7,-2 # 7fffffe <_stack_end+0x7efa33a>
    1b4c:	13f00793          	li	a5,319
    1b50:	00b80533          	add	a0,a6,a1
    1b54:	fff88393          	addi	t2,a7,-1
    1b58:	00188f93          	addi	t6,a7,1
    1b5c:	00288293          	addi	t0,a7,2
    1b60:	2ac7f663          	bgeu	a5,a2,1e0c <draw_snake_head+0x78c>
    1b64:	3a77fc63          	bgeu	a5,t2,1f1c <draw_snake_head+0x89c>
    1b68:	7717ec63          	bltu	a5,a7,22e0 <draw_snake_head+0xc60>
    1b6c:	ffe50613          	addi	a2,a0,-2
    1b70:	0ef00793          	li	a5,239
    1b74:	02c7e063          	bltu	a5,a2,1b94 <draw_snake_head+0x514>
    1b78:	00261793          	slli	a5,a2,0x2
    1b7c:	00c787b3          	add	a5,a5,a2
    1b80:	00679793          	slli	a5,a5,0x6
    1b84:	08000637          	lui	a2,0x8000
    1b88:	00f607b3          	add	a5,a2,a5
    1b8c:	fff00613          	li	a2,-1
    1b90:	00c78023          	sb	a2,0(a5)
    1b94:	fff50613          	addi	a2,a0,-1
    1b98:	00064863          	bltz	a2,1ba8 <draw_snake_head+0x528>
    1b9c:	0ef00793          	li	a5,239
    1ba0:	00c7c463          	blt	a5,a2,1ba8 <draw_snake_head+0x528>
    1ba4:	2a80106f          	j	2e4c <draw_snake_head+0x17cc>
    1ba8:	00055463          	bgez	a0,1bb0 <draw_snake_head+0x530>
    1bac:	2840106f          	j	2e30 <draw_snake_head+0x17b0>
    1bb0:	0ef00793          	li	a5,239
    1bb4:	00a7c463          	blt	a5,a0,1bbc <draw_snake_head+0x53c>
    1bb8:	3a00106f          	j	2f58 <draw_snake_head+0x18d8>
    1bbc:	13f00613          	li	a2,319
    1bc0:	00150793          	addi	a5,a0,1
    1bc4:	75166863          	bltu	a2,a7,2314 <draw_snake_head+0xc94>
    1bc8:	0007d463          	bgez	a5,1bd0 <draw_snake_head+0x550>
    1bcc:	1e40106f          	j	2db0 <draw_snake_head+0x1730>
    1bd0:	0ef00613          	li	a2,239
    1bd4:	02f64663          	blt	a2,a5,1c00 <draw_snake_head+0x580>
    1bd8:	00279613          	slli	a2,a5,0x2
    1bdc:	00f607b3          	add	a5,a2,a5
    1be0:	00679793          	slli	a5,a5,0x6
    1be4:	08000637          	lui	a2,0x8000
    1be8:	01f787b3          	add	a5,a5,t6
    1bec:	00f607b3          	add	a5,a2,a5
    1bf0:	fff00613          	li	a2,-1
    1bf4:	00c78023          	sb	a2,0(a5)
    1bf8:	13f00793          	li	a5,319
    1bfc:	7117ec63          	bltu	a5,a7,2314 <draw_snake_head+0xc94>
    1c00:	00250613          	addi	a2,a0,2
    1c04:	0ef00793          	li	a5,239
    1c08:	00c7f463          	bgeu	a5,a2,1c10 <draw_snake_head+0x590>
    1c0c:	1a40106f          	j	2db0 <draw_snake_head+0x1730>
    1c10:	00261793          	slli	a5,a2,0x2
    1c14:	00c787b3          	add	a5,a5,a2
    1c18:	00679793          	slli	a5,a5,0x6
    1c1c:	08000637          	lui	a2,0x8000
    1c20:	011787b3          	add	a5,a5,a7
    1c24:	00f607b3          	add	a5,a2,a5
    1c28:	fff00613          	li	a2,-1
    1c2c:	00c78023          	sb	a2,0(a5)
    1c30:	13f00793          	li	a5,319
    1c34:	02d7e463          	bltu	a5,a3,1c5c <draw_snake_head+0x5dc>
    1c38:	0ef00793          	li	a5,239
    1c3c:	02e7e063          	bltu	a5,a4,1c5c <draw_snake_head+0x5dc>
    1c40:	00271793          	slli	a5,a4,0x2
    1c44:	00e787b3          	add	a5,a5,a4
    1c48:	00679793          	slli	a5,a5,0x6
    1c4c:	00d787b3          	add	a5,a5,a3
    1c50:	08000737          	lui	a4,0x8000
    1c54:	00f707b3          	add	a5,a4,a5
    1c58:	00078023          	sb	zero,0(a5)
    1c5c:	13f00793          	li	a5,319
    1c60:	0317e463          	bltu	a5,a7,1c88 <draw_snake_head+0x608>
    1c64:	0ef00793          	li	a5,239
    1c68:	02a7e063          	bltu	a5,a0,1c88 <draw_snake_head+0x608>
    1c6c:	00251793          	slli	a5,a0,0x2
    1c70:	00a787b3          	add	a5,a5,a0
    1c74:	00679793          	slli	a5,a5,0x6
    1c78:	011787b3          	add	a5,a5,a7
    1c7c:	08000737          	lui	a4,0x8000
    1c80:	00f707b3          	add	a5,a4,a5
    1c84:	00078023          	sb	zero,0(a5)
    1c88:	02c12403          	lw	s0,44(sp)
    1c8c:	02812483          	lw	s1,40(sp)
    1c90:	02412903          	lw	s2,36(sp)
    1c94:	02012983          	lw	s3,32(sp)
    1c98:	01c12a03          	lw	s4,28(sp)
    1c9c:	01812a83          	lw	s5,24(sp)
    1ca0:	01412b03          	lw	s6,20(sp)
    1ca4:	01012b83          	lw	s7,16(sp)
    1ca8:	00c12c03          	lw	s8,12(sp)
    1cac:	00812c83          	lw	s9,8(sp)
    1cb0:	03010113          	addi	sp,sp,48
    1cb4:	00008067          	ret
    1cb8:	62075ae3          	bgez	a4,2aec <draw_snake_head+0x146c>
    1cbc:	13f00793          	li	a5,319
    1cc0:	4107f063          	bgeu	a5,a6,20c0 <draw_snake_head+0xa40>
    1cc4:	d317e6e3          	bltu	a5,a7,19f0 <draw_snake_head+0x370>
    1cc8:	00258713          	addi	a4,a1,2
    1ccc:	0ef00793          	li	a5,239
    1cd0:	48e7e8e3          	bltu	a5,a4,2960 <draw_snake_head+0x12e0>
    1cd4:	00271793          	slli	a5,a4,0x2
    1cd8:	00e787b3          	add	a5,a5,a4
    1cdc:	00679793          	slli	a5,a5,0x6
    1ce0:	08000737          	lui	a4,0x8000
    1ce4:	011787b3          	add	a5,a5,a7
    1ce8:	00f707b3          	add	a5,a4,a5
    1cec:	01400713          	li	a4,20
    1cf0:	00e78023          	sb	a4,0(a5)
    1cf4:	00358713          	addi	a4,a1,3
    1cf8:	4750006f          	j	296c <draw_snake_head+0x12ec>
    1cfc:	ffe70613          	addi	a2,a4,-2 # 7fffffe <_stack_end+0x7efa33a>
    1d00:	00261793          	slli	a5,a2,0x2
    1d04:	00c787b3          	add	a5,a5,a2
    1d08:	00679793          	slli	a5,a5,0x6
    1d0c:	00d787b3          	add	a5,a5,a3
    1d10:	080003b7          	lui	t2,0x8000
    1d14:	00f383b3          	add	t2,t2,a5
    1d18:	ffe00793          	li	a5,-2
    1d1c:	02f788b3          	mul	a7,a5,a5
    1d20:	00400493          	li	s1,4
    1d24:	14000a93          	li	s5,320
    1d28:	13f00993          	li	s3,319
    1d2c:	0ef00a13          	li	s4,239
    1d30:	00300913          	li	s2,3
    1d34:	00488e13          	addi	t3,a7,4
    1d38:	089e1463          	bne	t3,s1,1dc0 <draw_snake_head+0x740>
    1d3c:	06064463          	bltz	a2,1da4 <draw_snake_head+0x724>
    1d40:	06ca4263          	blt	s4,a2,1da4 <draw_snake_head+0x724>
    1d44:	fff00893          	li	a7,-1
    1d48:	ff138f23          	sb	a7,-2(t2) # 7fffffe <_stack_end+0x7efa33a>
    1d4c:	14000893          	li	a7,320
    1d50:	05140a63          	beq	s0,a7,1da4 <draw_snake_head+0x724>
    1d54:	f80008b7          	lui	a7,0xf8000
    1d58:	40d888b3          	sub	a7,a7,a3
    1d5c:	007888b3          	add	a7,a7,t2
    1d60:	00888b33          	add	s6,a7,s0
    1d64:	08000fb7          	lui	t6,0x8000
    1d68:	016f8b33          	add	s6,t6,s6
    1d6c:	fff00293          	li	t0,-1
    1d70:	005b0023          	sb	t0,0(s6)
    1d74:	14000b13          	li	s6,320
    1d78:	03668663          	beq	a3,s6,1da4 <draw_snake_head+0x724>
    1d7c:	00538023          	sb	t0,0(t2)
    1d80:	13f00b93          	li	s7,319
    1d84:	03dbe063          	bltu	s7,t4,1da4 <draw_snake_head+0x724>
    1d88:	005380a3          	sb	t0,1(t2)
    1d8c:	00400b93          	li	s7,4
    1d90:	017e1a63          	bne	t3,s7,1da4 <draw_snake_head+0x724>
    1d94:	016f0863          	beq	t5,s6,1da4 <draw_snake_head+0x724>
    1d98:	01e888b3          	add	a7,a7,t5
    1d9c:	011f8fb3          	add	t6,t6,a7
    1da0:	005f8023          	sb	t0,0(t6) # 8000000 <_stack_end+0x7efa33c>
    1da4:	00178793          	addi	a5,a5,1
    1da8:	00160613          	addi	a2,a2,1 # 8000001 <_stack_end+0x7efa33d>
    1dac:	14038393          	addi	t2,t2,320
    1db0:	d9278ae3          	beq	a5,s2,1b44 <draw_snake_head+0x4c4>
    1db4:	02f788b3          	mul	a7,a5,a5
    1db8:	00488e13          	addi	t3,a7,4 # f8000004 <_stack_end+0xf7efa340>
    1dbc:	f89e00e3          	beq	t3,s1,1d3c <draw_snake_head+0x6bc>
    1dc0:	02989463          	bne	a7,s1,1de8 <draw_snake_head+0x768>
    1dc4:	fed9e0e3          	bltu	s3,a3,1da4 <draw_snake_head+0x724>
    1dc8:	fcca6ee3          	bltu	s4,a2,1da4 <draw_snake_head+0x724>
    1dcc:	fff00893          	li	a7,-1
    1dd0:	01138023          	sb	a7,0(t2)
    1dd4:	00178793          	addi	a5,a5,1
    1dd8:	00160613          	addi	a2,a2,1
    1ddc:	14038393          	addi	t2,t2,320
    1de0:	fd279ae3          	bne	a5,s2,1db4 <draw_snake_head+0x734>
    1de4:	d61ff06f          	j	1b44 <draw_snake_head+0x4c4>
    1de8:	fb540ee3          	beq	s0,s5,1da4 <draw_snake_head+0x724>
    1dec:	fa064ce3          	bltz	a2,1da4 <draw_snake_head+0x724>
    1df0:	0ef00893          	li	a7,239
    1df4:	f6c8d0e3          	bge	a7,a2,1d54 <draw_snake_head+0x6d4>
    1df8:	00178793          	addi	a5,a5,1
    1dfc:	00160613          	addi	a2,a2,1
    1e00:	14038393          	addi	t2,t2,320
    1e04:	fb2798e3          	bne	a5,s2,1db4 <draw_snake_head+0x734>
    1e08:	d3dff06f          	j	1b44 <draw_snake_head+0x4c4>
    1e0c:	ffe50613          	addi	a2,a0,-2
    1e10:	00261793          	slli	a5,a2,0x2
    1e14:	00c787b3          	add	a5,a5,a2
    1e18:	00679793          	slli	a5,a5,0x6
    1e1c:	011787b3          	add	a5,a5,a7
    1e20:	080005b7          	lui	a1,0x8000
    1e24:	00f585b3          	add	a1,a1,a5
    1e28:	ffe00793          	li	a5,-2
    1e2c:	02f78833          	mul	a6,a5,a5
    1e30:	00400e13          	li	t3,4
    1e34:	14000493          	li	s1,320
    1e38:	13f00f13          	li	t5,319
    1e3c:	0ef00413          	li	s0,239
    1e40:	00300e93          	li	t4,3
    1e44:	00480313          	addi	t1,a6,4
    1e48:	09c31463          	bne	t1,t3,1ed0 <draw_snake_head+0x850>
    1e4c:	06064463          	bltz	a2,1eb4 <draw_snake_head+0x834>
    1e50:	06c44263          	blt	s0,a2,1eb4 <draw_snake_head+0x834>
    1e54:	fff00813          	li	a6,-1
    1e58:	ff058f23          	sb	a6,-2(a1) # 7fffffe <_stack_end+0x7efa33a>
    1e5c:	14000813          	li	a6,320
    1e60:	05038a63          	beq	t2,a6,1eb4 <draw_snake_head+0x834>
    1e64:	f8000837          	lui	a6,0xf8000
    1e68:	41180833          	sub	a6,a6,a7
    1e6c:	00b80833          	add	a6,a6,a1
    1e70:	00780a33          	add	s4,a6,t2
    1e74:	08000937          	lui	s2,0x8000
    1e78:	01490a33          	add	s4,s2,s4
    1e7c:	fff00993          	li	s3,-1
    1e80:	013a0023          	sb	s3,0(s4)
    1e84:	14000a13          	li	s4,320
    1e88:	03488663          	beq	a7,s4,1eb4 <draw_snake_head+0x834>
    1e8c:	01358023          	sb	s3,0(a1)
    1e90:	13f00a93          	li	s5,319
    1e94:	03fae063          	bltu	s5,t6,1eb4 <draw_snake_head+0x834>
    1e98:	013580a3          	sb	s3,1(a1)
    1e9c:	00400a93          	li	s5,4
    1ea0:	01531a63          	bne	t1,s5,1eb4 <draw_snake_head+0x834>
    1ea4:	01428863          	beq	t0,s4,1eb4 <draw_snake_head+0x834>
    1ea8:	00580833          	add	a6,a6,t0
    1eac:	01090933          	add	s2,s2,a6
    1eb0:	01390023          	sb	s3,0(s2) # 8000000 <_stack_end+0x7efa33c>
    1eb4:	00178793          	addi	a5,a5,1
    1eb8:	00160613          	addi	a2,a2,1
    1ebc:	14058593          	addi	a1,a1,320
    1ec0:	d7d788e3          	beq	a5,t4,1c30 <draw_snake_head+0x5b0>
    1ec4:	02f78833          	mul	a6,a5,a5
    1ec8:	00480313          	addi	t1,a6,4 # f8000004 <_stack_end+0xf7efa340>
    1ecc:	f9c300e3          	beq	t1,t3,1e4c <draw_snake_head+0x7cc>
    1ed0:	03c81463          	bne	a6,t3,1ef8 <draw_snake_head+0x878>
    1ed4:	ff1f60e3          	bltu	t5,a7,1eb4 <draw_snake_head+0x834>
    1ed8:	fcc46ee3          	bltu	s0,a2,1eb4 <draw_snake_head+0x834>
    1edc:	fff00813          	li	a6,-1
    1ee0:	01058023          	sb	a6,0(a1)
    1ee4:	00178793          	addi	a5,a5,1
    1ee8:	00160613          	addi	a2,a2,1
    1eec:	14058593          	addi	a1,a1,320
    1ef0:	fdd79ae3          	bne	a5,t4,1ec4 <draw_snake_head+0x844>
    1ef4:	d3dff06f          	j	1c30 <draw_snake_head+0x5b0>
    1ef8:	fa938ee3          	beq	t2,s1,1eb4 <draw_snake_head+0x834>
    1efc:	fa064ce3          	bltz	a2,1eb4 <draw_snake_head+0x834>
    1f00:	0ef00813          	li	a6,239
    1f04:	f6c850e3          	bge	a6,a2,1e64 <draw_snake_head+0x7e4>
    1f08:	00178793          	addi	a5,a5,1
    1f0c:	00160613          	addi	a2,a2,1
    1f10:	14058593          	addi	a1,a1,320
    1f14:	fbd798e3          	bne	a5,t4,1ec4 <draw_snake_head+0x844>
    1f18:	d19ff06f          	j	1c30 <draw_snake_head+0x5b0>
    1f1c:	ffe50613          	addi	a2,a0,-2
    1f20:	0ef00593          	li	a1,239
    1f24:	62c5e6e3          	bltu	a1,a2,2d50 <draw_snake_head+0x16d0>
    1f28:	00261793          	slli	a5,a2,0x2
    1f2c:	00c787b3          	add	a5,a5,a2
    1f30:	08000637          	lui	a2,0x8000
    1f34:	00160613          	addi	a2,a2,1 # 8000001 <_stack_end+0x7efa33d>
    1f38:	00679793          	slli	a5,a5,0x6
    1f3c:	00c787b3          	add	a5,a5,a2
    1f40:	fff00613          	li	a2,-1
    1f44:	00c78023          	sb	a2,0(a5)
    1f48:	fff50613          	addi	a2,a0,-1
    1f4c:	0ef00793          	li	a5,239
    1f50:	02c7cc63          	blt	a5,a2,1f88 <draw_snake_head+0x908>
    1f54:	00261793          	slli	a5,a2,0x2
    1f58:	00c787b3          	add	a5,a5,a2
    1f5c:	00679793          	slli	a5,a5,0x6
    1f60:	08000637          	lui	a2,0x8000
    1f64:	fff00593          	li	a1,-1
    1f68:	00f60333          	add	t1,a2,a5
    1f6c:	00178813          	addi	a6,a5,1
    1f70:	00b30023          	sb	a1,0(t1)
    1f74:	01060833          	add	a6,a2,a6
    1f78:	00278793          	addi	a5,a5,2
    1f7c:	00b80023          	sb	a1,0(a6)
    1f80:	00f60633          	add	a2,a2,a5
    1f84:	00b60023          	sb	a1,0(a2) # 8000000 <_stack_end+0x7efa33c>
    1f88:	0ef00793          	li	a5,239
    1f8c:	4aa7dae3          	bge	a5,a0,2c40 <draw_snake_head+0x15c0>
    1f90:	13f00613          	li	a2,319
    1f94:	ced66ae3          	bltu	a2,a3,1c88 <draw_snake_head+0x608>
    1f98:	cae7f4e3          	bgeu	a5,a4,1c40 <draw_snake_head+0x5c0>
    1f9c:	cedff06f          	j	1c88 <draw_snake_head+0x608>
    1fa0:	ffe70613          	addi	a2,a4,-2
    1fa4:	0ef00793          	li	a5,239
    1fa8:	3ac7e463          	bltu	a5,a2,2350 <draw_snake_head+0xcd0>
    1fac:	00261793          	slli	a5,a2,0x2
    1fb0:	00c787b3          	add	a5,a5,a2
    1fb4:	08000637          	lui	a2,0x8000
    1fb8:	00160613          	addi	a2,a2,1 # 8000001 <_stack_end+0x7efa33d>
    1fbc:	00679793          	slli	a5,a5,0x6
    1fc0:	00c787b3          	add	a5,a5,a2
    1fc4:	fff00613          	li	a2,-1
    1fc8:	00c78023          	sb	a2,0(a5)
    1fcc:	fff70613          	addi	a2,a4,-1
    1fd0:	0ef00e93          	li	t4,239
    1fd4:	b6cec8e3          	blt	t4,a2,1b44 <draw_snake_head+0x4c4>
    1fd8:	00261793          	slli	a5,a2,0x2
    1fdc:	00c787b3          	add	a5,a5,a2
    1fe0:	00679793          	slli	a5,a5,0x6
    1fe4:	08000637          	lui	a2,0x8000
    1fe8:	fff00893          	li	a7,-1
    1fec:	00f60f33          	add	t5,a2,a5
    1ff0:	00178e13          	addi	t3,a5,1
    1ff4:	011f0023          	sb	a7,0(t5)
    1ff8:	01c60e33          	add	t3,a2,t3
    1ffc:	00278793          	addi	a5,a5,2
    2000:	011e0023          	sb	a7,0(t3)
    2004:	00f60633          	add	a2,a2,a5
    2008:	01160023          	sb	a7,0(a2) # 8000000 <_stack_end+0x7efa33c>
    200c:	b2eecce3          	blt	t4,a4,1b44 <draw_snake_head+0x4c4>
    2010:	00271793          	slli	a5,a4,0x2
    2014:	00e787b3          	add	a5,a5,a4
    2018:	00679793          	slli	a5,a5,0x6
    201c:	08000637          	lui	a2,0x8000
    2020:	fff00893          	li	a7,-1
    2024:	00f60e33          	add	t3,a2,a5
    2028:	00178e93          	addi	t4,a5,1
    202c:	011e0023          	sb	a7,0(t3)
    2030:	01d60eb3          	add	t4,a2,t4
    2034:	00278e13          	addi	t3,a5,2
    2038:	011e8023          	sb	a7,0(t4)
    203c:	01c60e33          	add	t3,a2,t3
    2040:	00378793          	addi	a5,a5,3
    2044:	00f60633          	add	a2,a2,a5
    2048:	011e0023          	sb	a7,0(t3)
    204c:	01160023          	sb	a7,0(a2) # 8000000 <_stack_end+0x7efa33c>
    2050:	0f000793          	li	a5,240
    2054:	00170613          	addi	a2,a4,1
    2058:	aef606e3          	beq	a2,a5,1b44 <draw_snake_head+0x4c4>
    205c:	00261793          	slli	a5,a2,0x2
    2060:	00c787b3          	add	a5,a5,a2
    2064:	00679793          	slli	a5,a5,0x6
    2068:	08000637          	lui	a2,0x8000
    206c:	fff00893          	li	a7,-1
    2070:	00f60eb3          	add	t4,a2,a5
    2074:	00178e13          	addi	t3,a5,1
    2078:	011e8023          	sb	a7,0(t4)
    207c:	01c60e33          	add	t3,a2,t3
    2080:	00278793          	addi	a5,a5,2
    2084:	011e0023          	sb	a7,0(t3)
    2088:	00f60633          	add	a2,a2,a5
    208c:	01160023          	sb	a7,0(a2) # 8000000 <_stack_end+0x7efa33c>
    2090:	00270613          	addi	a2,a4,2
    2094:	0ef00793          	li	a5,239
    2098:	aac7e6e3          	bltu	a5,a2,1b44 <draw_snake_head+0x4c4>
    209c:	00261793          	slli	a5,a2,0x2
    20a0:	00c787b3          	add	a5,a5,a2
    20a4:	08000637          	lui	a2,0x8000
    20a8:	00160613          	addi	a2,a2,1 # 8000001 <_stack_end+0x7efa33d>
    20ac:	00679793          	slli	a5,a5,0x6
    20b0:	00c787b3          	add	a5,a5,a2
    20b4:	fff00613          	li	a2,-1
    20b8:	00c78023          	sb	a2,0(a5)
    20bc:	a89ff06f          	j	1b44 <draw_snake_head+0x4c4>
    20c0:	00258713          	addi	a4,a1,2
    20c4:	1f17d063          	bge	a5,a7,22a4 <draw_snake_head+0xc24>
    20c8:	0ef00793          	li	a5,239
    20cc:	10e7e4e3          	bltu	a5,a4,29d4 <draw_snake_head+0x1354>
    20d0:	00358693          	addi	a3,a1,3
    20d4:	00271793          	slli	a5,a4,0x2
    20d8:	00e787b3          	add	a5,a5,a4
    20dc:	00269713          	slli	a4,a3,0x2
    20e0:	00d70733          	add	a4,a4,a3
    20e4:	00679793          	slli	a5,a5,0x6
    20e8:	080006b7          	lui	a3,0x8000
    20ec:	010787b3          	add	a5,a5,a6
    20f0:	00671713          	slli	a4,a4,0x6
    20f4:	00f687b3          	add	a5,a3,a5
    20f8:	01400613          	li	a2,20
    20fc:	01070733          	add	a4,a4,a6
    2100:	00c78023          	sb	a2,0(a5)
    2104:	00e686b3          	add	a3,a3,a4
    2108:	00c68023          	sb	a2,0(a3) # 8000000 <_stack_end+0x7efa33c>
    210c:	00458793          	addi	a5,a1,4
    2110:	14000713          	li	a4,320
    2114:	02e78733          	mul	a4,a5,a4
    2118:	080006b7          	lui	a3,0x8000
    211c:	00558793          	addi	a5,a1,5
    2120:	01070733          	add	a4,a4,a6
    2124:	00e68733          	add	a4,a3,a4
    2128:	01400693          	li	a3,20
    212c:	00d70023          	sb	a3,0(a4)
    2130:	14000713          	li	a4,320
    2134:	02e78733          	mul	a4,a5,a4
    2138:	080006b7          	lui	a3,0x8000
    213c:	00658793          	addi	a5,a1,6
    2140:	0ef00613          	li	a2,239
    2144:	01070733          	add	a4,a4,a6
    2148:	00e68733          	add	a4,a3,a4
    214c:	01400693          	li	a3,20
    2150:	00d70023          	sb	a3,0(a4)
    2154:	76f64263          	blt	a2,a5,28b8 <draw_snake_head+0x1238>
    2158:	14000713          	li	a4,320
    215c:	02e78733          	mul	a4,a5,a4
    2160:	080006b7          	lui	a3,0x8000
    2164:	00758793          	addi	a5,a1,7
    2168:	0ef00613          	li	a2,239
    216c:	01070733          	add	a4,a4,a6
    2170:	00e68733          	add	a4,a3,a4
    2174:	01400693          	li	a3,20
    2178:	00d70023          	sb	a3,0(a4)
    217c:	78f64e63          	blt	a2,a5,2918 <draw_snake_head+0x1298>
    2180:	14000713          	li	a4,320
    2184:	02e78733          	mul	a4,a5,a4
    2188:	080006b7          	lui	a3,0x8000
    218c:	00858793          	addi	a5,a1,8
    2190:	0ef00613          	li	a2,239
    2194:	01070733          	add	a4,a4,a6
    2198:	00e68733          	add	a4,a3,a4
    219c:	01400693          	li	a3,20
    21a0:	00d70023          	sb	a3,0(a4)
    21a4:	78f64c63          	blt	a2,a5,293c <draw_snake_head+0x12bc>
    21a8:	14000713          	li	a4,320
    21ac:	02e787b3          	mul	a5,a5,a4
    21b0:	080006b7          	lui	a3,0x8000
    21b4:	00958713          	addi	a4,a1,9
    21b8:	010787b3          	add	a5,a5,a6
    21bc:	00f687b3          	add	a5,a3,a5
    21c0:	01400693          	li	a3,20
    21c4:	00d78023          	sb	a3,0(a5)
    21c8:	14000793          	li	a5,320
    21cc:	02f70733          	mul	a4,a4,a5
    21d0:	080006b7          	lui	a3,0x8000
    21d4:	00a58793          	addi	a5,a1,10
    21d8:	01070733          	add	a4,a4,a6
    21dc:	00e68733          	add	a4,a3,a4
    21e0:	01400693          	li	a3,20
    21e4:	00d70023          	sb	a3,0(a4)
    21e8:	14000713          	li	a4,320
    21ec:	02e78733          	mul	a4,a5,a4
    21f0:	080006b7          	lui	a3,0x8000
    21f4:	00b58793          	addi	a5,a1,11
    21f8:	01070733          	add	a4,a4,a6
    21fc:	00e68733          	add	a4,a3,a4
    2200:	01400693          	li	a3,20
    2204:	00d70023          	sb	a3,0(a4)
    2208:	14000713          	li	a4,320
    220c:	02e78733          	mul	a4,a5,a4
    2210:	080006b7          	lui	a3,0x8000
    2214:	00c58793          	addi	a5,a1,12
    2218:	0ef00613          	li	a2,239
    221c:	01070733          	add	a4,a4,a6
    2220:	00e68733          	add	a4,a3,a4
    2224:	01400693          	li	a3,20
    2228:	00d70023          	sb	a3,0(a4)
    222c:	fcf64263          	blt	a2,a5,19f0 <draw_snake_head+0x370>
    2230:	14000713          	li	a4,320
    2234:	02e787b3          	mul	a5,a5,a4
    2238:	08000737          	lui	a4,0x8000
    223c:	010787b3          	add	a5,a5,a6
    2240:	00f707b3          	add	a5,a4,a5
    2244:	01400713          	li	a4,20
    2248:	00e78023          	sb	a4,0(a5)
    224c:	00d58713          	addi	a4,a1,13
    2250:	0ef00793          	li	a5,239
    2254:	f8e7ee63          	bltu	a5,a4,19f0 <draw_snake_head+0x370>
    2258:	00271793          	slli	a5,a4,0x2
    225c:	00e787b3          	add	a5,a5,a4
    2260:	00679793          	slli	a5,a5,0x6
    2264:	08000737          	lui	a4,0x8000
    2268:	010787b3          	add	a5,a5,a6
    226c:	00f707b3          	add	a5,a4,a5
    2270:	01400713          	li	a4,20
    2274:	00e78023          	sb	a4,0(a5)
    2278:	f78ff06f          	j	19f0 <draw_snake_head+0x370>
    227c:	2517d263          	bge	a5,a7,24c0 <draw_snake_head+0xe40>
    2280:	00658713          	addi	a4,a1,6
    2284:	0ef00793          	li	a5,239
    2288:	44e7e863          	bltu	a5,a4,26d8 <draw_snake_head+0x1058>
    228c:	080007b7          	lui	a5,0x8000
    2290:	010787b3          	add	a5,a5,a6
    2294:	01400713          	li	a4,20
    2298:	00e78023          	sb	a4,0(a5) # 8000000 <_stack_end+0x7efa33c>
    229c:	00100793          	li	a5,1
    22a0:	ee1ff06f          	j	2180 <draw_snake_head+0xb00>
    22a4:	0ef00793          	li	a5,239
    22a8:	6ee7e663          	bltu	a5,a4,2994 <draw_snake_head+0x1314>
    22ac:	00271793          	slli	a5,a4,0x2
    22b0:	00e787b3          	add	a5,a5,a4
    22b4:	00679793          	slli	a5,a5,0x6
    22b8:	08000737          	lui	a4,0x8000
    22bc:	00f806b3          	add	a3,a6,a5
    22c0:	01400613          	li	a2,20
    22c4:	00d706b3          	add	a3,a4,a3
    22c8:	00f887b3          	add	a5,a7,a5
    22cc:	00f70733          	add	a4,a4,a5
    22d0:	00c68023          	sb	a2,0(a3) # 8000000 <_stack_end+0x7efa33c>
    22d4:	00c70023          	sb	a2,0(a4) # 8000000 <_stack_end+0x7efa33c>
    22d8:	00358713          	addi	a4,a1,3
    22dc:	6c40006f          	j	29a0 <draw_snake_head+0x1320>
    22e0:	2ff7e6e3          	bltu	a5,t6,2dcc <draw_snake_head+0x174c>
    22e4:	fff50613          	addi	a2,a0,-1
    22e8:	500652e3          	bgez	a2,2fec <draw_snake_head+0x196c>
    22ec:	520504e3          	beqz	a0,3014 <draw_snake_head+0x1994>
    22f0:	fff00613          	li	a2,-1
    22f4:	00000793          	li	a5,0
    22f8:	00c51e63          	bne	a0,a2,2314 <draw_snake_head+0xc94>
    22fc:	14000613          	li	a2,320
    2300:	02c787b3          	mul	a5,a5,a2
    2304:	08000637          	lui	a2,0x8000
    2308:	00f607b3          	add	a5,a2,a5
    230c:	fff00613          	li	a2,-1
    2310:	00c78023          	sb	a2,0(a5)
    2314:	13f00793          	li	a5,319
    2318:	96d7e8e3          	bltu	a5,a3,1c88 <draw_snake_head+0x608>
    231c:	0ef00793          	li	a5,239
    2320:	92e7f0e3          	bgeu	a5,a4,1c40 <draw_snake_head+0x5c0>
    2324:	965ff06f          	j	1c88 <draw_snake_head+0x608>
    2328:	21d662e3          	bltu	a2,t4,2d2c <draw_snake_head+0x16ac>
    232c:	fff70613          	addi	a2,a4,-1
    2330:	24065ae3          	bgez	a2,2d84 <draw_snake_head+0x1704>
    2334:	f4070e63          	beqz	a4,1a90 <draw_snake_head+0x410>
    2338:	fff00793          	li	a5,-1
    233c:	80f714e3          	bne	a4,a5,1b44 <draw_snake_head+0x4c4>
    2340:	080007b7          	lui	a5,0x8000
    2344:	01d787b3          	add	a5,a5,t4
    2348:	00e78023          	sb	a4,0(a5) # 8000000 <_stack_end+0x7efa33c>
    234c:	ff8ff06f          	j	1b44 <draw_snake_head+0x4c4>
    2350:	fff70613          	addi	a2,a4,-1
    2354:	c6065ee3          	bgez	a2,1fd0 <draw_snake_head+0x950>
    2358:	ca070ce3          	beqz	a4,2010 <draw_snake_head+0x990>
    235c:	fff00793          	li	a5,-1
    2360:	d2f718e3          	bne	a4,a5,2090 <draw_snake_head+0xa10>
    2364:	00000613          	li	a2,0
    2368:	cf5ff06f          	j	205c <draw_snake_head+0x9dc>
    236c:	13f00793          	li	a5,319
    2370:	0197ec63          	bltu	a5,s9,2388 <draw_snake_head+0xd08>
    2374:	01fc8cb3          	add	s9,s9,t6
    2378:	080007b7          	lui	a5,0x8000
    237c:	019787b3          	add	a5,a5,s9
    2380:	01400713          	li	a4,20
    2384:	00e78023          	sb	a4,0(a5) # 8000000 <_stack_end+0x7efa33c>
    2388:	13f00793          	li	a5,319
    238c:	0177ec63          	bltu	a5,s7,23a4 <draw_snake_head+0xd24>
    2390:	01fb8bb3          	add	s7,s7,t6
    2394:	080007b7          	lui	a5,0x8000
    2398:	017787b3          	add	a5,a5,s7
    239c:	01400713          	li	a4,20
    23a0:	00e78023          	sb	a4,0(a5) # 8000000 <_stack_end+0x7efa33c>
    23a4:	13f00793          	li	a5,319
    23a8:	0157ec63          	bltu	a5,s5,23c0 <draw_snake_head+0xd40>
    23ac:	01fa8ab3          	add	s5,s5,t6
    23b0:	080007b7          	lui	a5,0x8000
    23b4:	015787b3          	add	a5,a5,s5
    23b8:	01400713          	li	a4,20
    23bc:	00e78023          	sb	a4,0(a5) # 8000000 <_stack_end+0x7efa33c>
    23c0:	13f00793          	li	a5,319
    23c4:	0147ec63          	bltu	a5,s4,23dc <draw_snake_head+0xd5c>
    23c8:	01fa0a33          	add	s4,s4,t6
    23cc:	080007b7          	lui	a5,0x8000
    23d0:	014787b3          	add	a5,a5,s4
    23d4:	01400713          	li	a4,20
    23d8:	00e78023          	sb	a4,0(a5) # 8000000 <_stack_end+0x7efa33c>
    23dc:	13f00793          	li	a5,319
    23e0:	0137ec63          	bltu	a5,s3,23f8 <draw_snake_head+0xd78>
    23e4:	01f989b3          	add	s3,s3,t6
    23e8:	080007b7          	lui	a5,0x8000
    23ec:	013787b3          	add	a5,a5,s3
    23f0:	01400713          	li	a4,20
    23f4:	00e78023          	sb	a4,0(a5) # 8000000 <_stack_end+0x7efa33c>
    23f8:	13f00793          	li	a5,319
    23fc:	0127ec63          	bltu	a5,s2,2414 <draw_snake_head+0xd94>
    2400:	01f90933          	add	s2,s2,t6
    2404:	080007b7          	lui	a5,0x8000
    2408:	012787b3          	add	a5,a5,s2
    240c:	01400713          	li	a4,20
    2410:	00e78023          	sb	a4,0(a5) # 8000000 <_stack_end+0x7efa33c>
    2414:	13f00793          	li	a5,319
    2418:	0097ec63          	bltu	a5,s1,2430 <draw_snake_head+0xdb0>
    241c:	01f484b3          	add	s1,s1,t6
    2420:	080007b7          	lui	a5,0x8000
    2424:	009787b3          	add	a5,a5,s1
    2428:	01400713          	li	a4,20
    242c:	00e78023          	sb	a4,0(a5) # 8000000 <_stack_end+0x7efa33c>
    2430:	13f00793          	li	a5,319
    2434:	0087ec63          	bltu	a5,s0,244c <draw_snake_head+0xdcc>
    2438:	01f40433          	add	s0,s0,t6
    243c:	080007b7          	lui	a5,0x8000
    2440:	008787b3          	add	a5,a5,s0
    2444:	01400713          	li	a4,20
    2448:	00e78023          	sb	a4,0(a5) # 8000000 <_stack_end+0x7efa33c>
    244c:	13f00793          	li	a5,319
    2450:	00c7ec63          	bltu	a5,a2,2468 <draw_snake_head+0xde8>
    2454:	01f60633          	add	a2,a2,t6
    2458:	080007b7          	lui	a5,0x8000
    245c:	00c787b3          	add	a5,a5,a2
    2460:	01400713          	li	a4,20
    2464:	00e78023          	sb	a4,0(a5) # 8000000 <_stack_end+0x7efa33c>
    2468:	13f00793          	li	a5,319
    246c:	0077ec63          	bltu	a5,t2,2484 <draw_snake_head+0xe04>
    2470:	01f383b3          	add	t2,t2,t6
    2474:	080007b7          	lui	a5,0x8000
    2478:	007787b3          	add	a5,a5,t2
    247c:	01400713          	li	a4,20
    2480:	00e78023          	sb	a4,0(a5) # 8000000 <_stack_end+0x7efa33c>
    2484:	13f00793          	li	a5,319
    2488:	0057ec63          	bltu	a5,t0,24a0 <draw_snake_head+0xe20>
    248c:	01f282b3          	add	t0,t0,t6
    2490:	080007b7          	lui	a5,0x8000
    2494:	005787b3          	add	a5,a5,t0
    2498:	01400713          	li	a4,20
    249c:	00e78023          	sb	a4,0(a5) # 8000000 <_stack_end+0x7efa33c>
    24a0:	13f00793          	li	a5,319
    24a4:	81e7ece3          	bltu	a5,t5,1cbc <draw_snake_head+0x63c>
    24a8:	01ff0f33          	add	t5,t5,t6
    24ac:	080007b7          	lui	a5,0x8000
    24b0:	01e787b3          	add	a5,a5,t5
    24b4:	01400713          	li	a4,20
    24b8:	00e78023          	sb	a4,0(a5) # 8000000 <_stack_end+0x7efa33c>
    24bc:	801ff06f          	j	1cbc <draw_snake_head+0x63c>
    24c0:	00658713          	addi	a4,a1,6
    24c4:	0ef00793          	li	a5,239
    24c8:	08e7e663          	bltu	a5,a4,2554 <draw_snake_head+0xed4>
    24cc:	00000713          	li	a4,0
    24d0:	00271793          	slli	a5,a4,0x2
    24d4:	00e787b3          	add	a5,a5,a4
    24d8:	00679793          	slli	a5,a5,0x6
    24dc:	08000737          	lui	a4,0x8000
    24e0:	00f806b3          	add	a3,a6,a5
    24e4:	01400613          	li	a2,20
    24e8:	00d706b3          	add	a3,a4,a3
    24ec:	00f887b3          	add	a5,a7,a5
    24f0:	00f70733          	add	a4,a4,a5
    24f4:	00c68023          	sb	a2,0(a3)
    24f8:	00c70023          	sb	a2,0(a4) # 8000000 <_stack_end+0x7efa33c>
    24fc:	0ef00793          	li	a5,239
    2500:	00758713          	addi	a4,a1,7
    2504:	04e7de63          	bge	a5,a4,2560 <draw_snake_head+0xee0>
    2508:	00a58793          	addi	a5,a1,10
    250c:	0ef00713          	li	a4,239
    2510:	08f76463          	bltu	a4,a5,2598 <draw_snake_head+0xf18>
    2514:	00000713          	li	a4,0
    2518:	00271793          	slli	a5,a4,0x2
    251c:	00e787b3          	add	a5,a5,a4
    2520:	00679793          	slli	a5,a5,0x6
    2524:	08000737          	lui	a4,0x8000
    2528:	00f806b3          	add	a3,a6,a5
    252c:	01400613          	li	a2,20
    2530:	00d706b3          	add	a3,a4,a3
    2534:	00f887b3          	add	a5,a7,a5
    2538:	00f70733          	add	a4,a4,a5
    253c:	00c68023          	sb	a2,0(a3)
    2540:	00c70023          	sb	a2,0(a4) # 8000000 <_stack_end+0x7efa33c>
    2544:	0ef00793          	li	a5,239
    2548:	00b58713          	addi	a4,a1,11
    254c:	04e7de63          	bge	a5,a4,25a8 <draw_snake_head+0xf28>
    2550:	ca0ff06f          	j	19f0 <draw_snake_head+0x370>
    2554:	00758713          	addi	a4,a1,7
    2558:	08e7e663          	bltu	a5,a4,25e4 <draw_snake_head+0xf64>
    255c:	00000713          	li	a4,0
    2560:	00271793          	slli	a5,a4,0x2
    2564:	00e787b3          	add	a5,a5,a4
    2568:	00679793          	slli	a5,a5,0x6
    256c:	08000737          	lui	a4,0x8000
    2570:	00f806b3          	add	a3,a6,a5
    2574:	01400613          	li	a2,20
    2578:	00d706b3          	add	a3,a4,a3
    257c:	00f887b3          	add	a5,a7,a5
    2580:	00f70733          	add	a4,a4,a5
    2584:	00c68023          	sb	a2,0(a3)
    2588:	00c70023          	sb	a2,0(a4) # 8000000 <_stack_end+0x7efa33c>
    258c:	0ef00793          	li	a5,239
    2590:	00858713          	addi	a4,a1,8
    2594:	04e7de63          	bge	a5,a4,25f0 <draw_snake_head+0xf70>
    2598:	00b58793          	addi	a5,a1,11
    259c:	0ef00713          	li	a4,239
    25a0:	08f76263          	bltu	a4,a5,2624 <draw_snake_head+0xfa4>
    25a4:	00000713          	li	a4,0
    25a8:	00271793          	slli	a5,a4,0x2
    25ac:	00e787b3          	add	a5,a5,a4
    25b0:	00679793          	slli	a5,a5,0x6
    25b4:	08000737          	lui	a4,0x8000
    25b8:	00f806b3          	add	a3,a6,a5
    25bc:	01400613          	li	a2,20
    25c0:	00d706b3          	add	a3,a4,a3
    25c4:	00f887b3          	add	a5,a7,a5
    25c8:	00f70733          	add	a4,a4,a5
    25cc:	00c68023          	sb	a2,0(a3)
    25d0:	00c70023          	sb	a2,0(a4) # 8000000 <_stack_end+0x7efa33c>
    25d4:	0ef00793          	li	a5,239
    25d8:	00c58713          	addi	a4,a1,12
    25dc:	04e7da63          	bge	a5,a4,2630 <draw_snake_head+0xfb0>
    25e0:	c10ff06f          	j	19f0 <draw_snake_head+0x370>
    25e4:	00858713          	addi	a4,a1,8
    25e8:	0ae7e863          	bltu	a5,a4,2698 <draw_snake_head+0x1018>
    25ec:	00000713          	li	a4,0
    25f0:	00271793          	slli	a5,a4,0x2
    25f4:	00e787b3          	add	a5,a5,a4
    25f8:	00679793          	slli	a5,a5,0x6
    25fc:	08000737          	lui	a4,0x8000
    2600:	00f806b3          	add	a3,a6,a5
    2604:	01400613          	li	a2,20
    2608:	00d706b3          	add	a3,a4,a3
    260c:	00f887b3          	add	a5,a7,a5
    2610:	00f70733          	add	a4,a4,a5
    2614:	00c68023          	sb	a2,0(a3)
    2618:	00c70023          	sb	a2,0(a4) # 8000000 <_stack_end+0x7efa33c>
    261c:	00958713          	addi	a4,a1,9
    2620:	0840006f          	j	26a4 <draw_snake_head+0x1024>
    2624:	00c58793          	addi	a5,a1,12
    2628:	02f76a63          	bltu	a4,a5,265c <draw_snake_head+0xfdc>
    262c:	00000713          	li	a4,0
    2630:	00271793          	slli	a5,a4,0x2
    2634:	00e787b3          	add	a5,a5,a4
    2638:	00679793          	slli	a5,a5,0x6
    263c:	08000737          	lui	a4,0x8000
    2640:	00f806b3          	add	a3,a6,a5
    2644:	01400613          	li	a2,20
    2648:	00d706b3          	add	a3,a4,a3
    264c:	00f887b3          	add	a5,a7,a5
    2650:	00c68023          	sb	a2,0(a3)
    2654:	00f70733          	add	a4,a4,a5
    2658:	00c70023          	sb	a2,0(a4) # 8000000 <_stack_end+0x7efa33c>
    265c:	00d58793          	addi	a5,a1,13
    2660:	0ef00713          	li	a4,239
    2664:	b8f76663          	bltu	a4,a5,19f0 <draw_snake_head+0x370>
    2668:	00279713          	slli	a4,a5,0x2
    266c:	00f70733          	add	a4,a4,a5
    2670:	00671713          	slli	a4,a4,0x6
    2674:	080006b7          	lui	a3,0x8000
    2678:	010707b3          	add	a5,a4,a6
    267c:	01400613          	li	a2,20
    2680:	00f687b3          	add	a5,a3,a5
    2684:	00e888b3          	add	a7,a7,a4
    2688:	00c78023          	sb	a2,0(a5)
    268c:	011686b3          	add	a3,a3,a7
    2690:	00c68023          	sb	a2,0(a3) # 8000000 <_stack_end+0x7efa33c>
    2694:	b5cff06f          	j	19f0 <draw_snake_head+0x370>
    2698:	00958713          	addi	a4,a1,9
    269c:	e6e7e6e3          	bltu	a5,a4,2508 <draw_snake_head+0xe88>
    26a0:	00000713          	li	a4,0
    26a4:	00271793          	slli	a5,a4,0x2
    26a8:	00e787b3          	add	a5,a5,a4
    26ac:	00679793          	slli	a5,a5,0x6
    26b0:	08000737          	lui	a4,0x8000
    26b4:	00f806b3          	add	a3,a6,a5
    26b8:	01400613          	li	a2,20
    26bc:	00d706b3          	add	a3,a4,a3
    26c0:	00f887b3          	add	a5,a7,a5
    26c4:	00f70733          	add	a4,a4,a5
    26c8:	00c68023          	sb	a2,0(a3)
    26cc:	00c70023          	sb	a2,0(a4) # 8000000 <_stack_end+0x7efa33c>
    26d0:	00a58713          	addi	a4,a1,10
    26d4:	e45ff06f          	j	2518 <draw_snake_head+0xe98>
    26d8:	00758713          	addi	a4,a1,7
    26dc:	0ee7e863          	bltu	a5,a4,27cc <draw_snake_head+0x114c>
    26e0:	080007b7          	lui	a5,0x8000
    26e4:	010787b3          	add	a5,a5,a6
    26e8:	01400713          	li	a4,20
    26ec:	00e78023          	sb	a4,0(a5) # 8000000 <_stack_end+0x7efa33c>
    26f0:	00100793          	li	a5,1
    26f4:	ab5ff06f          	j	21a8 <draw_snake_head+0xb28>
    26f8:	00458693          	addi	a3,a1,4
    26fc:	00000713          	li	a4,0
    2700:	0ed7e663          	bltu	a5,a3,27ec <draw_snake_head+0x116c>
    2704:	00271793          	slli	a5,a4,0x2
    2708:	00e787b3          	add	a5,a5,a4
    270c:	00679793          	slli	a5,a5,0x6
    2710:	08000737          	lui	a4,0x8000
    2714:	011787b3          	add	a5,a5,a7
    2718:	00f707b3          	add	a5,a4,a5
    271c:	01400713          	li	a4,20
    2720:	00e78023          	sb	a4,0(a5)
    2724:	00558713          	addi	a4,a1,5
    2728:	0ef00793          	li	a5,239
    272c:	0ce7d663          	bge	a5,a4,27f8 <draw_snake_head+0x1178>
    2730:	00858793          	addi	a5,a1,8
    2734:	0ef00713          	li	a4,239
    2738:	0ef76663          	bltu	a4,a5,2824 <draw_snake_head+0x11a4>
    273c:	00000713          	li	a4,0
    2740:	00271793          	slli	a5,a4,0x2
    2744:	00e787b3          	add	a5,a5,a4
    2748:	00679793          	slli	a5,a5,0x6
    274c:	08000737          	lui	a4,0x8000
    2750:	011787b3          	add	a5,a5,a7
    2754:	00f707b3          	add	a5,a4,a5
    2758:	01400713          	li	a4,20
    275c:	00e78023          	sb	a4,0(a5)
    2760:	00958713          	addi	a4,a1,9
    2764:	0ef00793          	li	a5,239
    2768:	0ce7d663          	bge	a5,a4,2834 <draw_snake_head+0x11b4>
    276c:	00c58793          	addi	a5,a1,12
    2770:	0ef00713          	li	a4,239
    2774:	02f76463          	bltu	a4,a5,279c <draw_snake_head+0x111c>
    2778:	00000713          	li	a4,0
    277c:	00271793          	slli	a5,a4,0x2
    2780:	00e787b3          	add	a5,a5,a4
    2784:	00679793          	slli	a5,a5,0x6
    2788:	08000737          	lui	a4,0x8000
    278c:	011787b3          	add	a5,a5,a7
    2790:	00f707b3          	add	a5,a4,a5
    2794:	01400713          	li	a4,20
    2798:	00e78023          	sb	a4,0(a5)
    279c:	00d58713          	addi	a4,a1,13
    27a0:	0ef00793          	li	a5,239
    27a4:	a4e7e663          	bltu	a5,a4,19f0 <draw_snake_head+0x370>
    27a8:	00271793          	slli	a5,a4,0x2
    27ac:	00e787b3          	add	a5,a5,a4
    27b0:	00679793          	slli	a5,a5,0x6
    27b4:	08000737          	lui	a4,0x8000
    27b8:	011787b3          	add	a5,a5,a7
    27bc:	00f707b3          	add	a5,a4,a5
    27c0:	01400713          	li	a4,20
    27c4:	00e78023          	sb	a4,0(a5)
    27c8:	a28ff06f          	j	19f0 <draw_snake_head+0x370>
    27cc:	00858713          	addi	a4,a1,8
    27d0:	08e7ea63          	bltu	a5,a4,2864 <draw_snake_head+0x11e4>
    27d4:	080007b7          	lui	a5,0x8000
    27d8:	01400713          	li	a4,20
    27dc:	010787b3          	add	a5,a5,a6
    27e0:	00e78023          	sb	a4,0(a5) # 8000000 <_stack_end+0x7efa33c>
    27e4:	00100713          	li	a4,1
    27e8:	9e1ff06f          	j	21c8 <draw_snake_head+0xb48>
    27ec:	00558713          	addi	a4,a1,5
    27f0:	2ce7e263          	bltu	a5,a4,2ab4 <draw_snake_head+0x1434>
    27f4:	00000713          	li	a4,0
    27f8:	00271793          	slli	a5,a4,0x2
    27fc:	00e787b3          	add	a5,a5,a4
    2800:	00679793          	slli	a5,a5,0x6
    2804:	08000737          	lui	a4,0x8000
    2808:	011787b3          	add	a5,a5,a7
    280c:	00f707b3          	add	a5,a4,a5
    2810:	01400713          	li	a4,20
    2814:	00e78023          	sb	a4,0(a5)
    2818:	00658713          	addi	a4,a1,6
    281c:	0ef00793          	li	a5,239
    2820:	2ae7d263          	bge	a5,a4,2ac4 <draw_snake_head+0x1444>
    2824:	00958713          	addi	a4,a1,9
    2828:	0ef00793          	li	a5,239
    282c:	04e7ec63          	bltu	a5,a4,2884 <draw_snake_head+0x1204>
    2830:	00000713          	li	a4,0
    2834:	00271793          	slli	a5,a4,0x2
    2838:	00e787b3          	add	a5,a5,a4
    283c:	00679793          	slli	a5,a5,0x6
    2840:	08000737          	lui	a4,0x8000
    2844:	011787b3          	add	a5,a5,a7
    2848:	00f707b3          	add	a5,a4,a5
    284c:	01400713          	li	a4,20
    2850:	00e78023          	sb	a4,0(a5)
    2854:	00a58713          	addi	a4,a1,10
    2858:	0ef00793          	li	a5,239
    285c:	02e7da63          	bge	a5,a4,2890 <draw_snake_head+0x1210>
    2860:	f3dff06f          	j	279c <draw_snake_head+0x111c>
    2864:	00958713          	addi	a4,a1,9
    2868:	04e7e863          	bltu	a5,a4,28b8 <draw_snake_head+0x1238>
    286c:	080007b7          	lui	a5,0x8000
    2870:	010787b3          	add	a5,a5,a6
    2874:	01400713          	li	a4,20
    2878:	00e78023          	sb	a4,0(a5) # 8000000 <_stack_end+0x7efa33c>
    287c:	00100793          	li	a5,1
    2880:	969ff06f          	j	21e8 <draw_snake_head+0xb68>
    2884:	00a58713          	addi	a4,a1,10
    2888:	04e7ea63          	bltu	a5,a4,28dc <draw_snake_head+0x125c>
    288c:	00000713          	li	a4,0
    2890:	00271793          	slli	a5,a4,0x2
    2894:	00e787b3          	add	a5,a5,a4
    2898:	00679793          	slli	a5,a5,0x6
    289c:	08000737          	lui	a4,0x8000
    28a0:	011787b3          	add	a5,a5,a7
    28a4:	00f707b3          	add	a5,a4,a5
    28a8:	01400713          	li	a4,20
    28ac:	00e78023          	sb	a4,0(a5)
    28b0:	00b58713          	addi	a4,a1,11
    28b4:	0340006f          	j	28e8 <draw_snake_head+0x1268>
    28b8:	00a58793          	addi	a5,a1,10
    28bc:	0ef00713          	li	a4,239
    28c0:	04f76c63          	bltu	a4,a5,2918 <draw_snake_head+0x1298>
    28c4:	080007b7          	lui	a5,0x8000
    28c8:	010787b3          	add	a5,a5,a6
    28cc:	01400713          	li	a4,20
    28d0:	00e78023          	sb	a4,0(a5) # 8000000 <_stack_end+0x7efa33c>
    28d4:	00100793          	li	a5,1
    28d8:	931ff06f          	j	2208 <draw_snake_head+0xb88>
    28dc:	00b58713          	addi	a4,a1,11
    28e0:	e8e7e6e3          	bltu	a5,a4,276c <draw_snake_head+0x10ec>
    28e4:	00000713          	li	a4,0
    28e8:	00271793          	slli	a5,a4,0x2
    28ec:	00e787b3          	add	a5,a5,a4
    28f0:	00679793          	slli	a5,a5,0x6
    28f4:	08000737          	lui	a4,0x8000
    28f8:	011787b3          	add	a5,a5,a7
    28fc:	00f707b3          	add	a5,a4,a5
    2900:	01400713          	li	a4,20
    2904:	00e78023          	sb	a4,0(a5)
    2908:	00c58713          	addi	a4,a1,12
    290c:	0f000793          	li	a5,240
    2910:	e6f716e3          	bne	a4,a5,277c <draw_snake_head+0x10fc>
    2914:	8dcff06f          	j	19f0 <draw_snake_head+0x370>
    2918:	00b58793          	addi	a5,a1,11
    291c:	0ef00713          	li	a4,239
    2920:	00f76e63          	bltu	a4,a5,293c <draw_snake_head+0x12bc>
    2924:	080007b7          	lui	a5,0x8000
    2928:	010787b3          	add	a5,a5,a6
    292c:	01400713          	li	a4,20
    2930:	00e78023          	sb	a4,0(a5) # 8000000 <_stack_end+0x7efa33c>
    2934:	00100793          	li	a5,1
    2938:	8f9ff06f          	j	2230 <draw_snake_head+0xbb0>
    293c:	00c58793          	addi	a5,a1,12
    2940:	0ef00713          	li	a4,239
    2944:	90f764e3          	bltu	a4,a5,224c <draw_snake_head+0xbcc>
    2948:	080007b7          	lui	a5,0x8000
    294c:	01400713          	li	a4,20
    2950:	010787b3          	add	a5,a5,a6
    2954:	00e78023          	sb	a4,0(a5) # 8000000 <_stack_end+0x7efa33c>
    2958:	00d58713          	addi	a4,a1,13
    295c:	8fdff06f          	j	2258 <draw_snake_head+0xbd8>
    2960:	00358693          	addi	a3,a1,3
    2964:	00000713          	li	a4,0
    2968:	d8d7e8e3          	bltu	a5,a3,26f8 <draw_snake_head+0x1078>
    296c:	00271793          	slli	a5,a4,0x2
    2970:	00e787b3          	add	a5,a5,a4
    2974:	00679793          	slli	a5,a5,0x6
    2978:	08000737          	lui	a4,0x8000
    297c:	011787b3          	add	a5,a5,a7
    2980:	00f707b3          	add	a5,a4,a5
    2984:	01400713          	li	a4,20
    2988:	00e78023          	sb	a4,0(a5)
    298c:	00458713          	addi	a4,a1,4
    2990:	d75ff06f          	j	2704 <draw_snake_head+0x1084>
    2994:	00358713          	addi	a4,a1,3
    2998:	04e7ee63          	bltu	a5,a4,29f4 <draw_snake_head+0x1374>
    299c:	00000713          	li	a4,0
    29a0:	00271793          	slli	a5,a4,0x2
    29a4:	00e787b3          	add	a5,a5,a4
    29a8:	00679793          	slli	a5,a5,0x6
    29ac:	08000737          	lui	a4,0x8000
    29b0:	010786b3          	add	a3,a5,a6
    29b4:	01400613          	li	a2,20
    29b8:	00d706b3          	add	a3,a4,a3
    29bc:	00f887b3          	add	a5,a7,a5
    29c0:	00f70733          	add	a4,a4,a5
    29c4:	00c68023          	sb	a2,0(a3)
    29c8:	00c70023          	sb	a2,0(a4) # 8000000 <_stack_end+0x7efa33c>
    29cc:	00458713          	addi	a4,a1,4
    29d0:	0300006f          	j	2a00 <draw_snake_head+0x1380>
    29d4:	00358713          	addi	a4,a1,3
    29d8:	08e7ee63          	bltu	a5,a4,2a74 <draw_snake_head+0x13f4>
    29dc:	080007b7          	lui	a5,0x8000
    29e0:	010787b3          	add	a5,a5,a6
    29e4:	01400713          	li	a4,20
    29e8:	00e78023          	sb	a4,0(a5) # 8000000 <_stack_end+0x7efa33c>
    29ec:	00100793          	li	a5,1
    29f0:	f20ff06f          	j	2110 <draw_snake_head+0xa90>
    29f4:	00458713          	addi	a4,a1,4
    29f8:	02e7ee63          	bltu	a5,a4,2a34 <draw_snake_head+0x13b4>
    29fc:	00000713          	li	a4,0
    2a00:	00271793          	slli	a5,a4,0x2
    2a04:	00e787b3          	add	a5,a5,a4
    2a08:	00679793          	slli	a5,a5,0x6
    2a0c:	08000737          	lui	a4,0x8000
    2a10:	00f806b3          	add	a3,a6,a5
    2a14:	01400613          	li	a2,20
    2a18:	00d706b3          	add	a3,a4,a3
    2a1c:	00f887b3          	add	a5,a7,a5
    2a20:	00f70733          	add	a4,a4,a5
    2a24:	00c68023          	sb	a2,0(a3)
    2a28:	00c70023          	sb	a2,0(a4) # 8000000 <_stack_end+0x7efa33c>
    2a2c:	00558713          	addi	a4,a1,5
    2a30:	0100006f          	j	2a40 <draw_snake_head+0x13c0>
    2a34:	00558713          	addi	a4,a1,5
    2a38:	a8e7e4e3          	bltu	a5,a4,24c0 <draw_snake_head+0xe40>
    2a3c:	00000713          	li	a4,0
    2a40:	00271793          	slli	a5,a4,0x2
    2a44:	00e787b3          	add	a5,a5,a4
    2a48:	00679793          	slli	a5,a5,0x6
    2a4c:	08000737          	lui	a4,0x8000
    2a50:	00f806b3          	add	a3,a6,a5
    2a54:	01400613          	li	a2,20
    2a58:	00d706b3          	add	a3,a4,a3
    2a5c:	00f887b3          	add	a5,a7,a5
    2a60:	00f70733          	add	a4,a4,a5
    2a64:	00c68023          	sb	a2,0(a3)
    2a68:	00c70023          	sb	a2,0(a4) # 8000000 <_stack_end+0x7efa33c>
    2a6c:	00658713          	addi	a4,a1,6
    2a70:	a61ff06f          	j	24d0 <draw_snake_head+0xe50>
    2a74:	00458713          	addi	a4,a1,4
    2a78:	00e7ee63          	bltu	a5,a4,2a94 <draw_snake_head+0x1414>
    2a7c:	080007b7          	lui	a5,0x8000
    2a80:	010787b3          	add	a5,a5,a6
    2a84:	01400713          	li	a4,20
    2a88:	00e78023          	sb	a4,0(a5) # 8000000 <_stack_end+0x7efa33c>
    2a8c:	00100793          	li	a5,1
    2a90:	ea0ff06f          	j	2130 <draw_snake_head+0xab0>
    2a94:	00558713          	addi	a4,a1,5
    2a98:	fee7e463          	bltu	a5,a4,2280 <draw_snake_head+0xc00>
    2a9c:	080007b7          	lui	a5,0x8000
    2aa0:	010787b3          	add	a5,a5,a6
    2aa4:	01400713          	li	a4,20
    2aa8:	00e78023          	sb	a4,0(a5) # 8000000 <_stack_end+0x7efa33c>
    2aac:	00100793          	li	a5,1
    2ab0:	ea8ff06f          	j	2158 <draw_snake_head+0xad8>
    2ab4:	00658713          	addi	a4,a1,6
    2ab8:	00e7f463          	bgeu	a5,a4,2ac0 <draw_snake_head+0x1440>
    2abc:	d05fe06f          	j	17c0 <draw_snake_head+0x140>
    2ac0:	00000713          	li	a4,0
    2ac4:	00271793          	slli	a5,a4,0x2
    2ac8:	00e787b3          	add	a5,a5,a4
    2acc:	00679793          	slli	a5,a5,0x6
    2ad0:	08000737          	lui	a4,0x8000
    2ad4:	011787b3          	add	a5,a5,a7
    2ad8:	00f707b3          	add	a5,a4,a5
    2adc:	01400713          	li	a4,20
    2ae0:	00e78023          	sb	a4,0(a5)
    2ae4:	00758713          	addi	a4,a1,7
    2ae8:	ce9fe06f          	j	17d0 <draw_snake_head+0x150>
    2aec:	13f00713          	li	a4,319
    2af0:	01976c63          	bltu	a4,s9,2b08 <draw_snake_head+0x1488>
    2af4:	00fc8cb3          	add	s9,s9,a5
    2af8:	08000737          	lui	a4,0x8000
    2afc:	01970733          	add	a4,a4,s9
    2b00:	01400693          	li	a3,20
    2b04:	00d70023          	sb	a3,0(a4) # 8000000 <_stack_end+0x7efa33c>
    2b08:	13f00713          	li	a4,319
    2b0c:	01776c63          	bltu	a4,s7,2b24 <draw_snake_head+0x14a4>
    2b10:	00fb8bb3          	add	s7,s7,a5
    2b14:	08000737          	lui	a4,0x8000
    2b18:	01770733          	add	a4,a4,s7
    2b1c:	01400693          	li	a3,20
    2b20:	00d70023          	sb	a3,0(a4) # 8000000 <_stack_end+0x7efa33c>
    2b24:	13f00713          	li	a4,319
    2b28:	01576c63          	bltu	a4,s5,2b40 <draw_snake_head+0x14c0>
    2b2c:	00fa8ab3          	add	s5,s5,a5
    2b30:	08000737          	lui	a4,0x8000
    2b34:	01570733          	add	a4,a4,s5
    2b38:	01400693          	li	a3,20
    2b3c:	00d70023          	sb	a3,0(a4) # 8000000 <_stack_end+0x7efa33c>
    2b40:	13f00713          	li	a4,319
    2b44:	01476c63          	bltu	a4,s4,2b5c <draw_snake_head+0x14dc>
    2b48:	00fa0a33          	add	s4,s4,a5
    2b4c:	08000737          	lui	a4,0x8000
    2b50:	01470733          	add	a4,a4,s4
    2b54:	01400693          	li	a3,20
    2b58:	00d70023          	sb	a3,0(a4) # 8000000 <_stack_end+0x7efa33c>
    2b5c:	13f00713          	li	a4,319
    2b60:	01376c63          	bltu	a4,s3,2b78 <draw_snake_head+0x14f8>
    2b64:	00f989b3          	add	s3,s3,a5
    2b68:	08000737          	lui	a4,0x8000
    2b6c:	01370733          	add	a4,a4,s3
    2b70:	01400693          	li	a3,20
    2b74:	00d70023          	sb	a3,0(a4) # 8000000 <_stack_end+0x7efa33c>
    2b78:	13f00713          	li	a4,319
    2b7c:	01276c63          	bltu	a4,s2,2b94 <draw_snake_head+0x1514>
    2b80:	00f90933          	add	s2,s2,a5
    2b84:	08000737          	lui	a4,0x8000
    2b88:	01270733          	add	a4,a4,s2
    2b8c:	01400693          	li	a3,20
    2b90:	00d70023          	sb	a3,0(a4) # 8000000 <_stack_end+0x7efa33c>
    2b94:	13f00713          	li	a4,319
    2b98:	00976c63          	bltu	a4,s1,2bb0 <draw_snake_head+0x1530>
    2b9c:	00f484b3          	add	s1,s1,a5
    2ba0:	08000737          	lui	a4,0x8000
    2ba4:	00970733          	add	a4,a4,s1
    2ba8:	01400693          	li	a3,20
    2bac:	00d70023          	sb	a3,0(a4) # 8000000 <_stack_end+0x7efa33c>
    2bb0:	13f00713          	li	a4,319
    2bb4:	00876c63          	bltu	a4,s0,2bcc <draw_snake_head+0x154c>
    2bb8:	00f40433          	add	s0,s0,a5
    2bbc:	08000737          	lui	a4,0x8000
    2bc0:	00870733          	add	a4,a4,s0
    2bc4:	01400693          	li	a3,20
    2bc8:	00d70023          	sb	a3,0(a4) # 8000000 <_stack_end+0x7efa33c>
    2bcc:	13f00713          	li	a4,319
    2bd0:	00c76c63          	bltu	a4,a2,2be8 <draw_snake_head+0x1568>
    2bd4:	00f60633          	add	a2,a2,a5
    2bd8:	08000737          	lui	a4,0x8000
    2bdc:	00c70733          	add	a4,a4,a2
    2be0:	01400693          	li	a3,20
    2be4:	00d70023          	sb	a3,0(a4) # 8000000 <_stack_end+0x7efa33c>
    2be8:	13f00713          	li	a4,319
    2bec:	00776c63          	bltu	a4,t2,2c04 <draw_snake_head+0x1584>
    2bf0:	00f383b3          	add	t2,t2,a5
    2bf4:	08000737          	lui	a4,0x8000
    2bf8:	00770733          	add	a4,a4,t2
    2bfc:	01400693          	li	a3,20
    2c00:	00d70023          	sb	a3,0(a4) # 8000000 <_stack_end+0x7efa33c>
    2c04:	13f00713          	li	a4,319
    2c08:	00576c63          	bltu	a4,t0,2c20 <draw_snake_head+0x15a0>
    2c0c:	00f282b3          	add	t0,t0,a5
    2c10:	08000737          	lui	a4,0x8000
    2c14:	00570733          	add	a4,a4,t0
    2c18:	01400693          	li	a3,20
    2c1c:	00d70023          	sb	a3,0(a4) # 8000000 <_stack_end+0x7efa33c>
    2c20:	13f00713          	li	a4,319
    2c24:	89e76c63          	bltu	a4,t5,1cbc <draw_snake_head+0x63c>
    2c28:	00ff0733          	add	a4,t5,a5
    2c2c:	080007b7          	lui	a5,0x8000
    2c30:	00e787b3          	add	a5,a5,a4
    2c34:	01400713          	li	a4,20
    2c38:	00e78023          	sb	a4,0(a5) # 8000000 <_stack_end+0x7efa33c>
    2c3c:	880ff06f          	j	1cbc <draw_snake_head+0x63c>
    2c40:	00251793          	slli	a5,a0,0x2
    2c44:	00a78633          	add	a2,a5,a0
    2c48:	00661613          	slli	a2,a2,0x6
    2c4c:	080005b7          	lui	a1,0x8000
    2c50:	fff00813          	li	a6,-1
    2c54:	00c58333          	add	t1,a1,a2
    2c58:	00160e13          	addi	t3,a2,1 # 8000001 <_stack_end+0x7efa33d>
    2c5c:	01030023          	sb	a6,0(t1)
    2c60:	01c58e33          	add	t3,a1,t3
    2c64:	00260313          	addi	t1,a2,2
    2c68:	010e0023          	sb	a6,0(t3)
    2c6c:	00658333          	add	t1,a1,t1
    2c70:	00360613          	addi	a2,a2,3
    2c74:	01030023          	sb	a6,0(t1)
    2c78:	00c58633          	add	a2,a1,a2
    2c7c:	01060023          	sb	a6,0(a2)
    2c80:	00150613          	addi	a2,a0,1
    2c84:	0f000813          	li	a6,240
    2c88:	33060663          	beq	a2,a6,2fb4 <draw_snake_head+0x1934>
    2c8c:	00261793          	slli	a5,a2,0x2
    2c90:	00c787b3          	add	a5,a5,a2
    2c94:	00679793          	slli	a5,a5,0x6
    2c98:	08000637          	lui	a2,0x8000
    2c9c:	fff00593          	li	a1,-1
    2ca0:	00f60333          	add	t1,a2,a5
    2ca4:	00178813          	addi	a6,a5,1
    2ca8:	00b30023          	sb	a1,0(t1)
    2cac:	01060833          	add	a6,a2,a6
    2cb0:	00278793          	addi	a5,a5,2
    2cb4:	00f60633          	add	a2,a2,a5
    2cb8:	00b80023          	sb	a1,0(a6)
    2cbc:	00b60023          	sb	a1,0(a2) # 8000000 <_stack_end+0x7efa33c>
    2cc0:	0f000793          	li	a5,240
    2cc4:	00250613          	addi	a2,a0,2
    2cc8:	2cf60863          	beq	a2,a5,2f98 <draw_snake_head+0x1918>
    2ccc:	00261793          	slli	a5,a2,0x2
    2cd0:	00c787b3          	add	a5,a5,a2
    2cd4:	00679793          	slli	a5,a5,0x6
    2cd8:	00178793          	addi	a5,a5,1
    2cdc:	08000637          	lui	a2,0x8000
    2ce0:	00f607b3          	add	a5,a2,a5
    2ce4:	fff00593          	li	a1,-1
    2ce8:	00b78023          	sb	a1,0(a5)
    2cec:	13f00793          	li	a5,319
    2cf0:	00d7f463          	bgeu	a5,a3,2cf8 <draw_snake_head+0x1678>
    2cf4:	f71fe06f          	j	1c64 <draw_snake_head+0x5e4>
    2cf8:	0ef00793          	li	a5,239
    2cfc:	00e7f463          	bgeu	a5,a4,2d04 <draw_snake_head+0x1684>
    2d00:	f65fe06f          	j	1c64 <draw_snake_head+0x5e4>
    2d04:	00271793          	slli	a5,a4,0x2
    2d08:	00e787b3          	add	a5,a5,a4
    2d0c:	00679793          	slli	a5,a5,0x6
    2d10:	00d787b3          	add	a5,a5,a3
    2d14:	00f60633          	add	a2,a2,a5
    2d18:	00060023          	sb	zero,0(a2) # 8000000 <_stack_end+0x7efa33c>
    2d1c:	f49fe06f          	j	1c64 <draw_snake_head+0x5e4>
    2d20:	00258713          	addi	a4,a1,2 # 8000002 <_stack_end+0x7efa33e>
    2d24:	d917d463          	bge	a5,a7,22ac <draw_snake_head+0xc2c>
    2d28:	ba8ff06f          	j	20d0 <draw_snake_head+0xa50>
    2d2c:	01e67463          	bgeu	a2,t5,2d34 <draw_snake_head+0x16b4>
    2d30:	e15fe06f          	j	1b44 <draw_snake_head+0x4c4>
    2d34:	00075463          	bgez	a4,2d3c <draw_snake_head+0x16bc>
    2d38:	e0dfe06f          	j	1b44 <draw_snake_head+0x4c4>
    2d3c:	0ef00793          	li	a5,239
    2d40:	00e7d463          	bge	a5,a4,2d48 <draw_snake_head+0x16c8>
    2d44:	e01fe06f          	j	1b44 <draw_snake_head+0x4c4>
    2d48:	00271793          	slli	a5,a4,0x2
    2d4c:	d65fe06f          	j	1ab0 <draw_snake_head+0x430>
    2d50:	fff50613          	addi	a2,a0,-1
    2d54:	9e065c63          	bgez	a2,1f4c <draw_snake_head+0x8cc>
    2d58:	ee0504e3          	beqz	a0,2c40 <draw_snake_head+0x15c0>
    2d5c:	fff00613          	li	a2,-1
    2d60:	28c50263          	beq	a0,a2,2fe4 <draw_snake_head+0x1964>
    2d64:	00250813          	addi	a6,a0,2
    2d68:	00000613          	li	a2,0
    2d6c:	f705f0e3          	bgeu	a1,a6,2ccc <draw_snake_head+0x164c>
    2d70:	00d7f463          	bgeu	a5,a3,2d78 <draw_snake_head+0x16f8>
    2d74:	f15fe06f          	j	1c88 <draw_snake_head+0x608>
    2d78:	00e5e463          	bltu	a1,a4,2d80 <draw_snake_head+0x1700>
    2d7c:	ec5fe06f          	j	1c40 <draw_snake_head+0x5c0>
    2d80:	f09fe06f          	j	1c88 <draw_snake_head+0x608>
    2d84:	0ef00793          	li	a5,239
    2d88:	00c7d463          	bge	a5,a2,2d90 <draw_snake_head+0x1710>
    2d8c:	db9fe06f          	j	1b44 <draw_snake_head+0x4c4>
    2d90:	00261793          	slli	a5,a2,0x2
    2d94:	00c787b3          	add	a5,a5,a2
    2d98:	08000637          	lui	a2,0x8000
    2d9c:	00679793          	slli	a5,a5,0x6
    2da0:	00f607b3          	add	a5,a2,a5
    2da4:	fff00613          	li	a2,-1
    2da8:	00c78023          	sb	a2,0(a5)
    2dac:	cddfe06f          	j	1a88 <draw_snake_head+0x408>
    2db0:	13f00793          	li	a5,319
    2db4:	00d7f463          	bgeu	a5,a3,2dbc <draw_snake_head+0x173c>
    2db8:	eadfe06f          	j	1c64 <draw_snake_head+0x5e4>
    2dbc:	0ef00793          	li	a5,239
    2dc0:	00e7e463          	bltu	a5,a4,2dc8 <draw_snake_head+0x1748>
    2dc4:	e7dfe06f          	j	1c40 <draw_snake_head+0x5c0>
    2dc8:	e9dfe06f          	j	1c64 <draw_snake_head+0x5e4>
    2dcc:	d457e463          	bltu	a5,t0,2314 <draw_snake_head+0xc94>
    2dd0:	d4054263          	bltz	a0,2314 <draw_snake_head+0xc94>
    2dd4:	0ef00793          	li	a5,239
    2dd8:	d2a7ce63          	blt	a5,a0,2314 <draw_snake_head+0xc94>
    2ddc:	00000293          	li	t0,0
    2de0:	00251793          	slli	a5,a0,0x2
    2de4:	00a787b3          	add	a5,a5,a0
    2de8:	00679793          	slli	a5,a5,0x6
    2dec:	005787b3          	add	a5,a5,t0
    2df0:	080005b7          	lui	a1,0x8000
    2df4:	00f587b3          	add	a5,a1,a5
    2df8:	fff00813          	li	a6,-1
    2dfc:	01078023          	sb	a6,0(a5)
    2e00:	13f00613          	li	a2,319
    2e04:	00150793          	addi	a5,a0,1
    2e08:	07166863          	bltu	a2,a7,2e78 <draw_snake_head+0x17f8>
    2e0c:	0ef00613          	li	a2,239
    2e10:	00f65463          	bge	a2,a5,2e18 <draw_snake_head+0x1798>
    2e14:	dbdfe06f          	j	1bd0 <draw_snake_head+0x550>
    2e18:	14000613          	li	a2,320
    2e1c:	02c78633          	mul	a2,a5,a2
    2e20:	01160633          	add	a2,a2,a7
    2e24:	00c585b3          	add	a1,a1,a2
    2e28:	01058023          	sb	a6,0(a1) # 8000000 <_stack_end+0x7efa33c>
    2e2c:	dadfe06f          	j	1bd8 <draw_snake_head+0x558>
    2e30:	fff00793          	li	a5,-1
    2e34:	04f51a63          	bne	a0,a5,2e88 <draw_snake_head+0x1808>
    2e38:	080007b7          	lui	a5,0x8000
    2e3c:	011787b3          	add	a5,a5,a7
    2e40:	00a78023          	sb	a0,0(a5) # 8000000 <_stack_end+0x7efa33c>
    2e44:	00000793          	li	a5,0
    2e48:	d91fe06f          	j	1bd8 <draw_snake_head+0x558>
    2e4c:	00261793          	slli	a5,a2,0x2
    2e50:	00c787b3          	add	a5,a5,a2
    2e54:	00679793          	slli	a5,a5,0x6
    2e58:	08000637          	lui	a2,0x8000
    2e5c:	00f60833          	add	a6,a2,a5
    2e60:	fff00593          	li	a1,-1
    2e64:	00178793          	addi	a5,a5,1
    2e68:	00b80023          	sb	a1,0(a6)
    2e6c:	00f60633          	add	a2,a2,a5
    2e70:	00b60023          	sb	a1,0(a2) # 8000000 <_stack_end+0x7efa33c>
    2e74:	d35fe06f          	j	1ba8 <draw_snake_head+0x528>
    2e78:	c9f66e63          	bltu	a2,t6,2314 <draw_snake_head+0xc94>
    2e7c:	0ef00613          	li	a2,239
    2e80:	c8f64a63          	blt	a2,a5,2314 <draw_snake_head+0xc94>
    2e84:	c78ff06f          	j	22fc <draw_snake_head+0xc7c>
    2e88:	00250613          	addi	a2,a0,2
    2e8c:	0ef00793          	li	a5,239
    2e90:	00c7e463          	bltu	a5,a2,2e98 <draw_snake_head+0x1818>
    2e94:	d7dfe06f          	j	1c10 <draw_snake_head+0x590>
    2e98:	13f00793          	li	a5,319
    2e9c:	f2d7f0e3          	bgeu	a5,a3,2dbc <draw_snake_head+0x173c>
    2ea0:	de9fe06f          	j	1c88 <draw_snake_head+0x608>
    2ea4:	01d8f463          	bgeu	a7,t4,2eac <draw_snake_head+0x182c>
    2ea8:	c9dfe06f          	j	1b44 <draw_snake_head+0x4c4>
    2eac:	0007d463          	bgez	a5,2eb4 <draw_snake_head+0x1834>
    2eb0:	c95fe06f          	j	1b44 <draw_snake_head+0x4c4>
    2eb4:	0ef00893          	li	a7,239
    2eb8:	00f8d463          	bge	a7,a5,2ec0 <draw_snake_head+0x1840>
    2ebc:	c89fe06f          	j	1b44 <draw_snake_head+0x4c4>
    2ec0:	00279893          	slli	a7,a5,0x2
    2ec4:	00f887b3          	add	a5,a7,a5
    2ec8:	00679793          	slli	a5,a5,0x6
    2ecc:	00f60633          	add	a2,a2,a5
    2ed0:	01c60023          	sb	t3,0(a2)
    2ed4:	c71fe06f          	j	1b44 <draw_snake_head+0x4c4>
    2ed8:	00170793          	addi	a5,a4,1
    2edc:	00270613          	addi	a2,a4,2
    2ee0:	00078463          	beqz	a5,2ee8 <draw_snake_head+0x1868>
    2ee4:	c3dfe06f          	j	1b20 <draw_snake_head+0x4a0>
    2ee8:	08000637          	lui	a2,0x8000
    2eec:	00d60633          	add	a2,a2,a3
    2ef0:	fff00893          	li	a7,-1
    2ef4:	01160023          	sb	a7,0(a2) # 8000000 <_stack_end+0x7efa33c>
    2ef8:	c05fe06f          	j	1afc <draw_snake_head+0x47c>
    2efc:	00261793          	slli	a5,a2,0x2
    2f00:	00c787b3          	add	a5,a5,a2
    2f04:	00679793          	slli	a5,a5,0x6
    2f08:	08000637          	lui	a2,0x8000
    2f0c:	fff00893          	li	a7,-1
    2f10:	00f60fb3          	add	t6,a2,a5
    2f14:	00178793          	addi	a5,a5,1
    2f18:	011f8023          	sb	a7,0(t6)
    2f1c:	00f607b3          	add	a5,a2,a5
    2f20:	01178023          	sb	a7,0(a5)
    2f24:	fa074ae3          	bltz	a4,2ed8 <draw_snake_head+0x1858>
    2f28:	00ee5463          	bge	t3,a4,2f30 <draw_snake_head+0x18b0>
    2f2c:	c19fe06f          	j	1b44 <draw_snake_head+0x4c4>
    2f30:	14000793          	li	a5,320
    2f34:	02f707b3          	mul	a5,a4,a5
    2f38:	00d787b3          	add	a5,a5,a3
    2f3c:	00f60633          	add	a2,a2,a5
    2f40:	01160023          	sb	a7,0(a2) # 8000000 <_stack_end+0x7efa33c>
    2f44:	b45fe06f          	j	1a88 <draw_snake_head+0x408>
    2f48:	f80748e3          	bltz	a4,2ed8 <draw_snake_head+0x1858>
    2f4c:	00271793          	slli	a5,a4,0x2
    2f50:	00e787b3          	add	a5,a5,a4
    2f54:	e45ff06f          	j	2d98 <draw_snake_head+0x1718>
    2f58:	00251793          	slli	a5,a0,0x2
    2f5c:	00a78633          	add	a2,a5,a0
    2f60:	00661613          	slli	a2,a2,0x6
    2f64:	080005b7          	lui	a1,0x8000
    2f68:	01160633          	add	a2,a2,a7
    2f6c:	00c58633          	add	a2,a1,a2
    2f70:	fff00593          	li	a1,-1
    2f74:	00b60023          	sb	a1,0(a2)
    2f78:	00a78633          	add	a2,a5,a0
    2f7c:	00661613          	slli	a2,a2,0x6
    2f80:	080005b7          	lui	a1,0x8000
    2f84:	01f60633          	add	a2,a2,t6
    2f88:	00c58633          	add	a2,a1,a2
    2f8c:	fff00593          	li	a1,-1
    2f90:	00b60023          	sb	a1,0(a2)
    2f94:	e51ff06f          	j	2de4 <draw_snake_head+0x1764>
    2f98:	13f00793          	li	a5,319
    2f9c:	00d7f463          	bgeu	a5,a3,2fa4 <draw_snake_head+0x1924>
    2fa0:	ccdfe06f          	j	1c6c <draw_snake_head+0x5ec>
    2fa4:	0ef00793          	li	a5,239
    2fa8:	00e7e463          	bltu	a5,a4,2fb0 <draw_snake_head+0x1930>
    2fac:	c95fe06f          	j	1c40 <draw_snake_head+0x5c0>
    2fb0:	cbdfe06f          	j	1c6c <draw_snake_head+0x5ec>
    2fb4:	13f00613          	li	a2,319
    2fb8:	00d67463          	bgeu	a2,a3,2fc0 <draw_snake_head+0x1940>
    2fbc:	cb5fe06f          	j	1c70 <draw_snake_head+0x5f0>
    2fc0:	0ef00613          	li	a2,239
    2fc4:	00e67463          	bgeu	a2,a4,2fcc <draw_snake_head+0x194c>
    2fc8:	ca9fe06f          	j	1c70 <draw_snake_head+0x5f0>
    2fcc:	14000793          	li	a5,320
    2fd0:	02f707b3          	mul	a5,a4,a5
    2fd4:	00d787b3          	add	a5,a5,a3
    2fd8:	00f585b3          	add	a1,a1,a5
    2fdc:	00058023          	sb	zero,0(a1) # 8000000 <_stack_end+0x7efa33c>
    2fe0:	c85fe06f          	j	1c64 <draw_snake_head+0x5e4>
    2fe4:	00000613          	li	a2,0
    2fe8:	ca5ff06f          	j	2c8c <draw_snake_head+0x160c>
    2fec:	0ef00793          	li	a5,239
    2ff0:	00c7d463          	bge	a5,a2,2ff8 <draw_snake_head+0x1978>
    2ff4:	bc9fe06f          	j	1bbc <draw_snake_head+0x53c>
    2ff8:	00261793          	slli	a5,a2,0x2
    2ffc:	00c787b3          	add	a5,a5,a2
    3000:	00679793          	slli	a5,a5,0x6
    3004:	08000637          	lui	a2,0x8000
    3008:	00f607b3          	add	a5,a2,a5
    300c:	fff00613          	li	a2,-1
    3010:	00c78023          	sb	a2,0(a5)
    3014:	0f000613          	li	a2,240
    3018:	00251793          	slli	a5,a0,0x2
    301c:	f4c51ee3          	bne	a0,a2,2f78 <draw_snake_head+0x18f8>
    3020:	b9dfe06f          	j	1bbc <draw_snake_head+0x53c>
    3024:	00270613          	addi	a2,a4,2
    3028:	af9fe06f          	j	1b20 <draw_snake_head+0x4a0>

0000302c <get_char_idx>:
    302c:	00050793          	mv	a5,a0
    3030:	fd050513          	addi	a0,a0,-48
    3034:	0ff57693          	zext.b	a3,a0
    3038:	00900713          	li	a4,9
    303c:	02d77c63          	bgeu	a4,a3,3074 <get_char_idx+0x48>
    3040:	fbf78713          	addi	a4,a5,-65
    3044:	0ff77713          	zext.b	a4,a4
    3048:	01900693          	li	a3,25
    304c:	02e6f663          	bgeu	a3,a4,3078 <get_char_idx+0x4c>
    3050:	f9f78713          	addi	a4,a5,-97
    3054:	0ff77713          	zext.b	a4,a4
    3058:	02e6f463          	bgeu	a3,a4,3080 <get_char_idx+0x54>
    305c:	03a00713          	li	a4,58
    3060:	00a00513          	li	a0,10
    3064:	00e78863          	beq	a5,a4,3074 <get_char_idx+0x48>
    3068:	fc578513          	addi	a0,a5,-59
    306c:	00a03533          	snez	a0,a0
    3070:	00b50513          	addi	a0,a0,11
    3074:	00008067          	ret
    3078:	fcc78513          	addi	a0,a5,-52
    307c:	00008067          	ret
    3080:	fac78513          	addi	a0,a5,-84
    3084:	00008067          	ret

00003088 <abs>:
    3088:	41f55793          	srai	a5,a0,0x1f
    308c:	00a7c533          	xor	a0,a5,a0
    3090:	40f50533          	sub	a0,a0,a5
    3094:	00008067          	ret

00003098 <vga_draw_pixel>:
    3098:	13f00793          	li	a5,319
    309c:	02a7e463          	bltu	a5,a0,30c4 <vga_draw_pixel+0x2c>
    30a0:	0ef00793          	li	a5,239
    30a4:	02b7e063          	bltu	a5,a1,30c4 <vga_draw_pixel+0x2c>
    30a8:	00259793          	slli	a5,a1,0x2
    30ac:	00b787b3          	add	a5,a5,a1
    30b0:	00679793          	slli	a5,a5,0x6
    30b4:	00a787b3          	add	a5,a5,a0
    30b8:	08000737          	lui	a4,0x8000
    30bc:	00f707b3          	add	a5,a4,a5
    30c0:	00c78023          	sb	a2,0(a5)
    30c4:	00008067          	ret

000030c8 <vga_clear_screen>:
    30c8:	08013737          	lui	a4,0x8013
    30cc:	080007b7          	lui	a5,0x8000
    30d0:	c0070713          	addi	a4,a4,-1024 # 8012c00 <_stack_end+0x7f0cf3c>
    30d4:	00a78023          	sb	a0,0(a5) # 8000000 <_stack_end+0x7efa33c>
    30d8:	00178793          	addi	a5,a5,1
    30dc:	fee79ce3          	bne	a5,a4,30d4 <vga_clear_screen+0xc>
    30e0:	00008067          	ret

000030e4 <vga_draw_line>:
    30e4:	0ad58a63          	beq	a1,a3,3198 <vga_draw_line+0xb4>
    30e8:	10c50c63          	beq	a0,a2,3200 <vga_draw_line+0x11c>
    30ec:	40a60333          	sub	t1,a2,a0
    30f0:	41f35793          	srai	a5,t1,0x1f
    30f4:	ff010113          	addi	sp,sp,-16
    30f8:	0067c333          	xor	t1,a5,t1
    30fc:	00812623          	sw	s0,12(sp)
    3100:	40f30333          	sub	t1,t1,a5
    3104:	fff00393          	li	t2,-1
    3108:	00c55463          	bge	a0,a2,3110 <vga_draw_line+0x2c>
    310c:	00100393          	li	t2,1
    3110:	40b68f33          	sub	t5,a3,a1
    3114:	41ff5793          	srai	a5,t5,0x1f
    3118:	01e7cf33          	xor	t5,a5,t5
    311c:	40ff0f33          	sub	t5,t5,a5
    3120:	41e00eb3          	neg	t4,t5
    3124:	fff00413          	li	s0,-1
    3128:	06d5c463          	blt	a1,a3,3190 <vga_draw_line+0xac>
    312c:	41e30833          	sub	a6,t1,t5
    3130:	13f00e13          	li	t3,319
    3134:	0ef00293          	li	t0,239
    3138:	08000fb7          	lui	t6,0x8000
    313c:	00181893          	slli	a7,a6,0x1
    3140:	02ae6063          	bltu	t3,a0,3160 <vga_draw_line+0x7c>
    3144:	00259793          	slli	a5,a1,0x2
    3148:	00b787b3          	add	a5,a5,a1
    314c:	00679793          	slli	a5,a5,0x6
    3150:	00a787b3          	add	a5,a5,a0
    3154:	00ff87b3          	add	a5,t6,a5
    3158:	00b2e463          	bltu	t0,a1,3160 <vga_draw_line+0x7c>
    315c:	00e78023          	sb	a4,0(a5)
    3160:	02c50063          	beq	a0,a2,3180 <vga_draw_line+0x9c>
    3164:	01d8c863          	blt	a7,t4,3174 <vga_draw_line+0x90>
    3168:	41e80833          	sub	a6,a6,t5
    316c:	00750533          	add	a0,a0,t2
    3170:	fd1346e3          	blt	t1,a7,313c <vga_draw_line+0x58>
    3174:	00680833          	add	a6,a6,t1
    3178:	008585b3          	add	a1,a1,s0
    317c:	fc1ff06f          	j	313c <vga_draw_line+0x58>
    3180:	fed592e3          	bne	a1,a3,3164 <vga_draw_line+0x80>
    3184:	00c12403          	lw	s0,12(sp)
    3188:	01010113          	addi	sp,sp,16
    318c:	00008067          	ret
    3190:	00100413          	li	s0,1
    3194:	f99ff06f          	j	312c <vga_draw_line+0x48>
    3198:	00050793          	mv	a5,a0
    319c:	04a64c63          	blt	a2,a0,31f4 <vga_draw_line+0x110>
    31a0:	04c54463          	blt	a0,a2,31e8 <vga_draw_line+0x104>
    31a4:	04f54063          	blt	a0,a5,31e4 <vga_draw_line+0x100>
    31a8:	0ef00693          	li	a3,239
    31ac:	02b6ec63          	bltu	a3,a1,31e4 <vga_draw_line+0x100>
    31b0:	00259613          	slli	a2,a1,0x2
    31b4:	00b60633          	add	a2,a2,a1
    31b8:	00661613          	slli	a2,a2,0x6
    31bc:	080005b7          	lui	a1,0x8000
    31c0:	00150693          	addi	a3,a0,1
    31c4:	00b60633          	add	a2,a2,a1
    31c8:	13f00513          	li	a0,319
    31cc:	00f605b3          	add	a1,a2,a5
    31d0:	00f56463          	bltu	a0,a5,31d8 <vga_draw_line+0xf4>
    31d4:	00e58023          	sb	a4,0(a1) # 8000000 <_stack_end+0x7efa33c>
    31d8:	00178793          	addi	a5,a5,1
    31dc:	fed798e3          	bne	a5,a3,31cc <vga_draw_line+0xe8>
    31e0:	00008067          	ret
    31e4:	00008067          	ret
    31e8:	00060513          	mv	a0,a2
    31ec:	faf55ee3          	bge	a0,a5,31a8 <vga_draw_line+0xc4>
    31f0:	00008067          	ret
    31f4:	00060793          	mv	a5,a2
    31f8:	fac556e3          	bge	a0,a2,31a4 <vga_draw_line+0xc0>
    31fc:	fedff06f          	j	31e8 <vga_draw_line+0x104>
    3200:	00058793          	mv	a5,a1
    3204:	00b6d463          	bge	a3,a1,320c <vga_draw_line+0x128>
    3208:	00068793          	mv	a5,a3
    320c:	00d5d463          	bge	a1,a3,3214 <vga_draw_line+0x130>
    3210:	00068593          	mv	a1,a3
    3214:	fcf5c8e3          	blt	a1,a5,31e4 <vga_draw_line+0x100>
    3218:	13f00693          	li	a3,319
    321c:	fca6e4e3          	bltu	a3,a0,31e4 <vga_draw_line+0x100>
    3220:	00279613          	slli	a2,a5,0x2
    3224:	00f60633          	add	a2,a2,a5
    3228:	00661613          	slli	a2,a2,0x6
    322c:	00a60633          	add	a2,a2,a0
    3230:	080006b7          	lui	a3,0x8000
    3234:	00c686b3          	add	a3,a3,a2
    3238:	00158613          	addi	a2,a1,1
    323c:	0ef00593          	li	a1,239
    3240:	00f5e463          	bltu	a1,a5,3248 <vga_draw_line+0x164>
    3244:	00e68023          	sb	a4,0(a3) # 8000000 <_stack_end+0x7efa33c>
    3248:	00178793          	addi	a5,a5,1
    324c:	14068693          	addi	a3,a3,320
    3250:	fec798e3          	bne	a5,a2,3240 <vga_draw_line+0x15c>
    3254:	00008067          	ret

00003258 <vga_draw_char>:
    3258:	fd060793          	addi	a5,a2,-48 # 7ffffd0 <_stack_end+0x7efa30c>
    325c:	0ff7f813          	zext.b	a6,a5
    3260:	00900713          	li	a4,9
    3264:	33077e63          	bgeu	a4,a6,35a0 <vga_draw_char+0x348>
    3268:	fbf60793          	addi	a5,a2,-65
    326c:	0ff7f793          	zext.b	a5,a5
    3270:	01900713          	li	a4,25
    3274:	02f77863          	bgeu	a4,a5,32a4 <vga_draw_char+0x4c>
    3278:	f9f60793          	addi	a5,a2,-97
    327c:	0ff7f793          	zext.b	a5,a5
    3280:	38f77c63          	bgeu	a4,a5,3618 <vga_draw_char+0x3c0>
    3284:	03a00793          	li	a5,58
    3288:	03200713          	li	a4,50
    328c:	02f60263          	beq	a2,a5,32b0 <vga_draw_char+0x58>
    3290:	03b00793          	li	a5,59
    3294:	03700713          	li	a4,55
    3298:	00f60c63          	beq	a2,a5,32b0 <vga_draw_char+0x58>
    329c:	03c00713          	li	a4,60
    32a0:	0100006f          	j	32b0 <vga_draw_char+0x58>
    32a4:	fcc60613          	addi	a2,a2,-52
    32a8:	00261713          	slli	a4,a2,0x2
    32ac:	00c70733          	add	a4,a4,a2
    32b0:	000067b7          	lui	a5,0x6
    32b4:	ad478793          	addi	a5,a5,-1324 # 5ad4 <font_5x7>
    32b8:	00e788b3          	add	a7,a5,a4
    32bc:	1805c663          	bltz	a1,3448 <vga_draw_char+0x1f0>
    32c0:	00259793          	slli	a5,a1,0x2
    32c4:	00b787b3          	add	a5,a5,a1
    32c8:	00679793          	slli	a5,a5,0x6
    32cc:	08000737          	lui	a4,0x8000
    32d0:	ff010113          	addi	sp,sp,-16
    32d4:	00a787b3          	add	a5,a5,a0
    32d8:	78070713          	addi	a4,a4,1920 # 8000780 <_stack_end+0x7efaabc>
    32dc:	00812623          	sw	s0,12(sp)
    32e0:	00912423          	sw	s1,8(sp)
    32e4:	00e78e33          	add	t3,a5,a4
    32e8:	00550e93          	addi	t4,a0,5
    32ec:	00050313          	mv	t1,a0
    32f0:	00658413          	addi	s0,a1,6
    32f4:	0ea00393          	li	t2,234
    32f8:	0eb00293          	li	t0,235
    32fc:	13f00f13          	li	t5,319
    3300:	0ec00f93          	li	t6,236
    3304:	0ed00493          	li	s1,237
    3308:	40a307b3          	sub	a5,t1,a0
    330c:	00f887b3          	add	a5,a7,a5
    3310:	0007c783          	lbu	a5,0(a5)
    3314:	0017f713          	andi	a4,a5,1
    3318:	0027f613          	andi	a2,a5,2
    331c:	0047f813          	andi	a6,a5,4
    3320:	06070263          	beqz	a4,3384 <vga_draw_char+0x12c>
    3324:	106f6463          	bltu	t5,t1,342c <vga_draw_char+0x1d4>
    3328:	0ef00713          	li	a4,239
    332c:	2ab75463          	bge	a4,a1,35d4 <vga_draw_char+0x37c>
    3330:	2c060463          	beqz	a2,35f8 <vga_draw_char+0x3a0>
    3334:	2a080c63          	beqz	a6,35ec <vga_draw_char+0x394>
    3338:	0ed00713          	li	a4,237
    333c:	06b74663          	blt	a4,a1,33a8 <vga_draw_char+0x150>
    3340:	b0de0023          	sb	a3,-1280(t3)
    3344:	0087f713          	andi	a4,a5,8
    3348:	06070a63          	beqz	a4,33bc <vga_draw_char+0x164>
    334c:	13f00713          	li	a4,319
    3350:	0a676263          	bltu	a4,t1,33f4 <vga_draw_char+0x19c>
    3354:	06bfd263          	bge	t6,a1,33b8 <vga_draw_char+0x160>
    3358:	0107f713          	andi	a4,a5,16
    335c:	24071c63          	bnez	a4,35b4 <vga_draw_char+0x35c>
    3360:	0207f713          	andi	a4,a5,32
    3364:	06070863          	beqz	a4,33d4 <vga_draw_char+0x17c>
    3368:	13f00713          	li	a4,319
    336c:	08676463          	bltu	a4,t1,33f4 <vga_draw_char+0x19c>
    3370:	24b3de63          	bge	t2,a1,35cc <vga_draw_char+0x374>
    3374:	0407f793          	andi	a5,a5,64
    3378:	06078e63          	beqz	a5,33f4 <vga_draw_char+0x19c>
    337c:	00658793          	addi	a5,a1,6
    3380:	0680006f          	j	33e8 <vga_draw_char+0x190>
    3384:	00060a63          	beqz	a2,3398 <vga_draw_char+0x140>
    3388:	0a6f6263          	bltu	t5,t1,342c <vga_draw_char+0x1d4>
    338c:	0ee00713          	li	a4,238
    3390:	24b74863          	blt	a4,a1,35e0 <vga_draw_char+0x388>
    3394:	9cde0023          	sb	a3,-1600(t3)
    3398:	fa0806e3          	beqz	a6,3344 <vga_draw_char+0xec>
    339c:	13f00713          	li	a4,319
    33a0:	06676863          	bltu	a4,t1,3410 <vga_draw_char+0x1b8>
    33a4:	f8b4dee3          	bge	s1,a1,3340 <vga_draw_char+0xe8>
    33a8:	0087f713          	andi	a4,a5,8
    33ac:	00070863          	beqz	a4,33bc <vga_draw_char+0x164>
    33b0:	0ec00713          	li	a4,236
    33b4:	fab742e3          	blt	a4,a1,3358 <vga_draw_char+0x100>
    33b8:	c4de0023          	sb	a3,-960(t3)
    33bc:	0107f713          	andi	a4,a5,16
    33c0:	fa0700e3          	beqz	a4,3360 <vga_draw_char+0x108>
    33c4:	026f6863          	bltu	t5,t1,33f4 <vga_draw_char+0x19c>
    33c8:	1eb2da63          	bge	t0,a1,35bc <vga_draw_char+0x364>
    33cc:	0207f713          	andi	a4,a5,32
    33d0:	1e071a63          	bnez	a4,35c4 <vga_draw_char+0x36c>
    33d4:	0407f713          	andi	a4,a5,64
    33d8:	00070e63          	beqz	a4,33f4 <vga_draw_char+0x19c>
    33dc:	13f00793          	li	a5,319
    33e0:	0067ea63          	bltu	a5,t1,33f4 <vga_draw_char+0x19c>
    33e4:	00040793          	mv	a5,s0
    33e8:	0ef00713          	li	a4,239
    33ec:	00f74463          	blt	a4,a5,33f4 <vga_draw_char+0x19c>
    33f0:	00de0023          	sb	a3,0(t3)
    33f4:	00130313          	addi	t1,t1,1
    33f8:	001e0e13          	addi	t3,t3,1
    33fc:	f1d316e3          	bne	t1,t4,3308 <vga_draw_char+0xb0>
    3400:	00c12403          	lw	s0,12(sp)
    3404:	00812483          	lw	s1,8(sp)
    3408:	01010113          	addi	sp,sp,16
    340c:	00008067          	ret
    3410:	0087f713          	andi	a4,a5,8
    3414:	fe0710e3          	bnez	a4,33f4 <vga_draw_char+0x19c>
    3418:	0107f713          	andi	a4,a5,16
    341c:	fc071ce3          	bnez	a4,33f4 <vga_draw_char+0x19c>
    3420:	0207f713          	andi	a4,a5,32
    3424:	fa0708e3          	beqz	a4,33d4 <vga_draw_char+0x17c>
    3428:	fcdff06f          	j	33f4 <vga_draw_char+0x19c>
    342c:	fe0812e3          	bnez	a6,3410 <vga_draw_char+0x1b8>
    3430:	0087f713          	andi	a4,a5,8
    3434:	f80704e3          	beqz	a4,33bc <vga_draw_char+0x164>
    3438:	00130313          	addi	t1,t1,1
    343c:	001e0e13          	addi	t3,t3,1
    3440:	edd314e3          	bne	t1,t4,3308 <vga_draw_char+0xb0>
    3444:	fbdff06f          	j	3400 <vga_draw_char+0x1a8>
    3448:	00259713          	slli	a4,a1,0x2
    344c:	00b70733          	add	a4,a4,a1
    3450:	00671713          	slli	a4,a4,0x6
    3454:	080007b7          	lui	a5,0x8000
    3458:	00a70733          	add	a4,a4,a0
    345c:	78078793          	addi	a5,a5,1920 # 8000780 <_stack_end+0x7efaabc>
    3460:	00f70e33          	add	t3,a4,a5
    3464:	00550f13          	addi	t5,a0,5
    3468:	00050313          	mv	t1,a0
    346c:	13f00e93          	li	t4,319
    3470:	40a307b3          	sub	a5,t1,a0
    3474:	00f887b3          	add	a5,a7,a5
    3478:	0007c783          	lbu	a5,0(a5)
    347c:	0017f713          	andi	a4,a5,1
    3480:	0027f813          	andi	a6,a5,2
    3484:	0047f613          	andi	a2,a5,4
    3488:	0c071c63          	bnez	a4,3560 <vga_draw_char+0x308>
    348c:	08080463          	beqz	a6,3514 <vga_draw_char+0x2bc>
    3490:	186eec63          	bltu	t4,t1,3628 <vga_draw_char+0x3d0>
    3494:	00158713          	addi	a4,a1,1
    3498:	06070c63          	beqz	a4,3510 <vga_draw_char+0x2b8>
    349c:	08061063          	bnez	a2,351c <vga_draw_char+0x2c4>
    34a0:	0087f713          	andi	a4,a5,8
    34a4:	00070a63          	beqz	a4,34b8 <vga_draw_char+0x260>
    34a8:	046eec63          	bltu	t4,t1,3500 <vga_draw_char+0x2a8>
    34ac:	00358713          	addi	a4,a1,3
    34b0:	08074263          	bltz	a4,3534 <vga_draw_char+0x2dc>
    34b4:	c4de0023          	sb	a3,-960(t3)
    34b8:	0107f613          	andi	a2,a5,16
    34bc:	00060a63          	beqz	a2,34d0 <vga_draw_char+0x278>
    34c0:	046ee063          	bltu	t4,t1,3500 <vga_draw_char+0x2a8>
    34c4:	00458713          	addi	a4,a1,4
    34c8:	06074e63          	bltz	a4,3544 <vga_draw_char+0x2ec>
    34cc:	d8de0023          	sb	a3,-640(t3)
    34d0:	0207f613          	andi	a2,a5,32
    34d4:	00060a63          	beqz	a2,34e8 <vga_draw_char+0x290>
    34d8:	026ee463          	bltu	t4,t1,3500 <vga_draw_char+0x2a8>
    34dc:	00558713          	addi	a4,a1,5
    34e0:	06074a63          	bltz	a4,3554 <vga_draw_char+0x2fc>
    34e4:	ecde0023          	sb	a3,-320(t3)
    34e8:	0407f793          	andi	a5,a5,64
    34ec:	00078a63          	beqz	a5,3500 <vga_draw_char+0x2a8>
    34f0:	006ee863          	bltu	t4,t1,3500 <vga_draw_char+0x2a8>
    34f4:	00658793          	addi	a5,a1,6
    34f8:	0007c463          	bltz	a5,3500 <vga_draw_char+0x2a8>
    34fc:	00de0023          	sb	a3,0(t3)
    3500:	00130313          	addi	t1,t1,1
    3504:	001e0e13          	addi	t3,t3,1
    3508:	f7e314e3          	bne	t1,t5,3470 <vga_draw_char+0x218>
    350c:	00008067          	ret
    3510:	9cde0023          	sb	a3,-1600(t3)
    3514:	f80606e3          	beqz	a2,34a0 <vga_draw_char+0x248>
    3518:	066ee463          	bltu	t4,t1,3580 <vga_draw_char+0x328>
    351c:	00258713          	addi	a4,a1,2
    3520:	08075663          	bgez	a4,35ac <vga_draw_char+0x354>
    3524:	0087f713          	andi	a4,a5,8
    3528:	f80708e3          	beqz	a4,34b8 <vga_draw_char+0x260>
    352c:	00358713          	addi	a4,a1,3
    3530:	f80752e3          	bgez	a4,34b4 <vga_draw_char+0x25c>
    3534:	0107f713          	andi	a4,a5,16
    3538:	f8070ce3          	beqz	a4,34d0 <vga_draw_char+0x278>
    353c:	00458713          	addi	a4,a1,4
    3540:	f80756e3          	bgez	a4,34cc <vga_draw_char+0x274>
    3544:	0207f713          	andi	a4,a5,32
    3548:	fa0700e3          	beqz	a4,34e8 <vga_draw_char+0x290>
    354c:	00558713          	addi	a4,a1,5
    3550:	f8075ae3          	bgez	a4,34e4 <vga_draw_char+0x28c>
    3554:	0407f793          	andi	a5,a5,64
    3558:	f8079ee3          	bnez	a5,34f4 <vga_draw_char+0x29c>
    355c:	fa5ff06f          	j	3500 <vga_draw_char+0x2a8>
    3560:	006eec63          	bltu	t4,t1,3578 <vga_draw_char+0x320>
    3564:	f20818e3          	bnez	a6,3494 <vga_draw_char+0x23c>
    3568:	fa061ae3          	bnez	a2,351c <vga_draw_char+0x2c4>
    356c:	0087f713          	andi	a4,a5,8
    3570:	fc0702e3          	beqz	a4,3534 <vga_draw_char+0x2dc>
    3574:	f39ff06f          	j	34ac <vga_draw_char+0x254>
    3578:	00080e63          	beqz	a6,3594 <vga_draw_char+0x33c>
    357c:	00060c63          	beqz	a2,3594 <vga_draw_char+0x33c>
    3580:	0087f713          	andi	a4,a5,8
    3584:	f6071ee3          	bnez	a4,3500 <vga_draw_char+0x2a8>
    3588:	0207f713          	andi	a4,a5,32
    358c:	f4070ee3          	beqz	a4,34e8 <vga_draw_char+0x290>
    3590:	f71ff06f          	j	3500 <vga_draw_char+0x2a8>
    3594:	0087f713          	andi	a4,a5,8
    3598:	f20700e3          	beqz	a4,34b8 <vga_draw_char+0x260>
    359c:	f65ff06f          	j	3500 <vga_draw_char+0x2a8>
    35a0:	00279713          	slli	a4,a5,0x2
    35a4:	00f70733          	add	a4,a4,a5
    35a8:	d09ff06f          	j	32b0 <vga_draw_char+0x58>
    35ac:	b0de0023          	sb	a3,-1280(t3)
    35b0:	ef1ff06f          	j	34a0 <vga_draw_char+0x248>
    35b4:	0eb00713          	li	a4,235
    35b8:	e0b74ae3          	blt	a4,a1,33cc <vga_draw_char+0x174>
    35bc:	d8de0023          	sb	a3,-640(t3)
    35c0:	da1ff06f          	j	3360 <vga_draw_char+0x108>
    35c4:	0ea00713          	li	a4,234
    35c8:	dab746e3          	blt	a4,a1,3374 <vga_draw_char+0x11c>
    35cc:	ecde0023          	sb	a3,-320(t3)
    35d0:	e05ff06f          	j	33d4 <vga_draw_char+0x17c>
    35d4:	88de0023          	sb	a3,-1920(t3)
    35d8:	00060863          	beqz	a2,35e8 <vga_draw_char+0x390>
    35dc:	dae59ce3          	bne	a1,a4,3394 <vga_draw_char+0x13c>
    35e0:	d60802e3          	beqz	a6,3344 <vga_draw_char+0xec>
    35e4:	d55ff06f          	j	3338 <vga_draw_char+0xe0>
    35e8:	da081ee3          	bnez	a6,33a4 <vga_draw_char+0x14c>
    35ec:	0087f713          	andi	a4,a5,8
    35f0:	dc0706e3          	beqz	a4,33bc <vga_draw_char+0x164>
    35f4:	d61ff06f          	j	3354 <vga_draw_char+0xfc>
    35f8:	0087f713          	andi	a4,a5,8
    35fc:	fe080ae3          	beqz	a6,35f0 <vga_draw_char+0x398>
    3600:	da0718e3          	bnez	a4,33b0 <vga_draw_char+0x158>
    3604:	0107f713          	andi	a4,a5,16
    3608:	dc0710e3          	bnez	a4,33c8 <vga_draw_char+0x170>
    360c:	0207f713          	andi	a4,a5,32
    3610:	dc0702e3          	beqz	a4,33d4 <vga_draw_char+0x17c>
    3614:	d5dff06f          	j	3370 <vga_draw_char+0x118>
    3618:	fac60613          	addi	a2,a2,-84
    361c:	00261713          	slli	a4,a2,0x2
    3620:	00c70733          	add	a4,a4,a2
    3624:	c8dff06f          	j	32b0 <vga_draw_char+0x58>
    3628:	0087f713          	andi	a4,a5,8
    362c:	f60616e3          	bnez	a2,3598 <vga_draw_char+0x340>
    3630:	ec0718e3          	bnez	a4,3500 <vga_draw_char+0x2a8>
    3634:	0107f713          	andi	a4,a5,16
    3638:	e8070ce3          	beqz	a4,34d0 <vga_draw_char+0x278>
    363c:	ec5ff06f          	j	3500 <vga_draw_char+0x2a8>

00003640 <vga_draw_string>:
    3640:	00064783          	lbu	a5,0(a2)
    3644:	44078e63          	beqz	a5,3aa0 <vga_draw_string+0x460>
    3648:	fd010113          	addi	sp,sp,-48
    364c:	00006f37          	lui	t5,0x6
    3650:	02812623          	sw	s0,44(sp)
    3654:	02912423          	sw	s1,40(sp)
    3658:	03212223          	sw	s2,36(sp)
    365c:	03312023          	sw	s3,32(sp)
    3660:	01412e23          	sw	s4,28(sp)
    3664:	01512c23          	sw	s5,24(sp)
    3668:	01612a23          	sw	s6,20(sp)
    366c:	01712823          	sw	s7,16(sp)
    3670:	01812623          	sw	s8,12(sp)
    3674:	01912423          	sw	s9,8(sp)
    3678:	01a12223          	sw	s10,4(sp)
    367c:	01b12023          	sw	s11,0(sp)
    3680:	00050893          	mv	a7,a0
    3684:	00a00e93          	li	t4,10
    3688:	00900293          	li	t0,9
    368c:	ad4f0f13          	addi	t5,t5,-1324 # 5ad4 <font_5x7>
    3690:	080003b7          	lui	t2,0x8000
    3694:	0ea00993          	li	s3,234
    3698:	0eb00913          	li	s2,235
    369c:	13f00e13          	li	t3,319
    36a0:	0ec00493          	li	s1,236
    36a4:	0ed00a13          	li	s4,237
    36a8:	0ef00413          	li	s0,239
    36ac:	0ee00a93          	li	s5,238
    36b0:	01900f93          	li	t6,25
    36b4:	03a00b13          	li	s6,58
    36b8:	05d79863          	bne	a5,t4,3708 <vga_draw_string+0xc8>
    36bc:	00858593          	addi	a1,a1,8
    36c0:	00050893          	mv	a7,a0
    36c4:	00164783          	lbu	a5,1(a2)
    36c8:	00160613          	addi	a2,a2,1
    36cc:	fe0796e3          	bnez	a5,36b8 <vga_draw_string+0x78>
    36d0:	02c12403          	lw	s0,44(sp)
    36d4:	02812483          	lw	s1,40(sp)
    36d8:	02412903          	lw	s2,36(sp)
    36dc:	02012983          	lw	s3,32(sp)
    36e0:	01c12a03          	lw	s4,28(sp)
    36e4:	01812a83          	lw	s5,24(sp)
    36e8:	01412b03          	lw	s6,20(sp)
    36ec:	01012b83          	lw	s7,16(sp)
    36f0:	00c12c03          	lw	s8,12(sp)
    36f4:	00812c83          	lw	s9,8(sp)
    36f8:	00412d03          	lw	s10,4(sp)
    36fc:	00012d83          	lw	s11,0(sp)
    3700:	03010113          	addi	sp,sp,48
    3704:	00008067          	ret
    3708:	fd078713          	addi	a4,a5,-48
    370c:	00271313          	slli	t1,a4,0x2
    3710:	0ff77813          	zext.b	a6,a4
    3714:	00e30333          	add	t1,t1,a4
    3718:	0302f863          	bgeu	t0,a6,3748 <vga_draw_string+0x108>
    371c:	fbf78713          	addi	a4,a5,-65
    3720:	0ff77713          	zext.b	a4,a4
    3724:	2ceff463          	bgeu	t6,a4,39ec <vga_draw_string+0x3ac>
    3728:	f9f78713          	addi	a4,a5,-97
    372c:	0ff77713          	zext.b	a4,a4
    3730:	30effe63          	bgeu	t6,a4,3a4c <vga_draw_string+0x40c>
    3734:	03200313          	li	t1,50
    3738:	01678863          	beq	a5,s6,3748 <vga_draw_string+0x108>
    373c:	03b00713          	li	a4,59
    3740:	03700313          	li	t1,55
    3744:	32e79463          	bne	a5,a4,3a6c <vga_draw_string+0x42c>
    3748:	00259793          	slli	a5,a1,0x2
    374c:	00b787b3          	add	a5,a5,a1
    3750:	78088813          	addi	a6,a7,1920
    3754:	00679793          	slli	a5,a5,0x6
    3758:	00f80833          	add	a6,a6,a5
    375c:	006f0333          	add	t1,t5,t1
    3760:	01038833          	add	a6,t2,a6
    3764:	1205c663          	bltz	a1,3890 <vga_draw_string+0x250>
    3768:	00588c13          	addi	s8,a7,5
    376c:	00088713          	mv	a4,a7
    3770:	00658c93          	addi	s9,a1,6
    3774:	411707b3          	sub	a5,a4,a7
    3778:	00f307b3          	add	a5,t1,a5
    377c:	0007c783          	lbu	a5,0(a5)
    3780:	0017fb93          	andi	s7,a5,1
    3784:	0027fd13          	andi	s10,a5,2
    3788:	0047fd93          	andi	s11,a5,4
    378c:	060b8863          	beqz	s7,37fc <vga_draw_string+0x1bc>
    3790:	0eee6263          	bltu	t3,a4,3874 <vga_draw_string+0x234>
    3794:	26b45463          	bge	s0,a1,39fc <vga_draw_string+0x3bc>
    3798:	280d0463          	beqz	s10,3a20 <vga_draw_string+0x3e0>
    379c:	2c0d8263          	beqz	s11,3a60 <vga_draw_string+0x420>
    37a0:	0ed00b93          	li	s7,237
    37a4:	06bbca63          	blt	s7,a1,3818 <vga_draw_string+0x1d8>
    37a8:	b0d80023          	sb	a3,-1280(a6)
    37ac:	0087fb93          	andi	s7,a5,8
    37b0:	060b8863          	beqz	s7,3820 <vga_draw_string+0x1e0>
    37b4:	02ee6a63          	bltu	t3,a4,37e8 <vga_draw_string+0x1a8>
    37b8:	26b4de63          	bge	s1,a1,3a34 <vga_draw_string+0x3f4>
    37bc:	0107fb93          	andi	s7,a5,16
    37c0:	240b9863          	bnez	s7,3a10 <vga_draw_string+0x3d0>
    37c4:	0207fb93          	andi	s7,a5,32
    37c8:	060b8863          	beqz	s7,3838 <vga_draw_string+0x1f8>
    37cc:	00ee6e63          	bltu	t3,a4,37e8 <vga_draw_string+0x1a8>
    37d0:	26b9da63          	bge	s3,a1,3a44 <vga_draw_string+0x404>
    37d4:	0407f793          	andi	a5,a5,64
    37d8:	00078863          	beqz	a5,37e8 <vga_draw_string+0x1a8>
    37dc:	00658793          	addi	a5,a1,6
    37e0:	00f44463          	blt	s0,a5,37e8 <vga_draw_string+0x1a8>
    37e4:	00d80023          	sb	a3,0(a6)
    37e8:	00170713          	addi	a4,a4,1
    37ec:	00180813          	addi	a6,a6,1
    37f0:	f98712e3          	bne	a4,s8,3774 <vga_draw_string+0x134>
    37f4:	00688893          	addi	a7,a7,6
    37f8:	ecdff06f          	j	36c4 <vga_draw_string+0x84>
    37fc:	000d0863          	beqz	s10,380c <vga_draw_string+0x1cc>
    3800:	06ee6a63          	bltu	t3,a4,3874 <vga_draw_string+0x234>
    3804:	20bac263          	blt	s5,a1,3a08 <vga_draw_string+0x3c8>
    3808:	9cd80023          	sb	a3,-1600(a6)
    380c:	fa0d80e3          	beqz	s11,37ac <vga_draw_string+0x16c>
    3810:	02ee6e63          	bltu	t3,a4,384c <vga_draw_string+0x20c>
    3814:	f8ba5ae3          	bge	s4,a1,37a8 <vga_draw_string+0x168>
    3818:	0087fb93          	andi	s7,a5,8
    381c:	200b9863          	bnez	s7,3a2c <vga_draw_string+0x3ec>
    3820:	0107fb93          	andi	s7,a5,16
    3824:	fa0b80e3          	beqz	s7,37c4 <vga_draw_string+0x184>
    3828:	fcee60e3          	bltu	t3,a4,37e8 <vga_draw_string+0x1a8>
    382c:	1eb95663          	bge	s2,a1,3a18 <vga_draw_string+0x3d8>
    3830:	0207fb93          	andi	s7,a5,32
    3834:	200b9463          	bnez	s7,3a3c <vga_draw_string+0x3fc>
    3838:	0407f793          	andi	a5,a5,64
    383c:	fa0786e3          	beqz	a5,37e8 <vga_draw_string+0x1a8>
    3840:	faee64e3          	bltu	t3,a4,37e8 <vga_draw_string+0x1a8>
    3844:	000c8793          	mv	a5,s9
    3848:	f99ff06f          	j	37e0 <vga_draw_string+0x1a0>
    384c:	0087fb93          	andi	s7,a5,8
    3850:	f80b9ce3          	bnez	s7,37e8 <vga_draw_string+0x1a8>
    3854:	0107fb93          	andi	s7,a5,16
    3858:	f80b98e3          	bnez	s7,37e8 <vga_draw_string+0x1a8>
    385c:	0207fb93          	andi	s7,a5,32
    3860:	fc0b8ce3          	beqz	s7,3838 <vga_draw_string+0x1f8>
    3864:	00170713          	addi	a4,a4,1
    3868:	00180813          	addi	a6,a6,1
    386c:	f18714e3          	bne	a4,s8,3774 <vga_draw_string+0x134>
    3870:	f85ff06f          	j	37f4 <vga_draw_string+0x1b4>
    3874:	fc0d9ce3          	bnez	s11,384c <vga_draw_string+0x20c>
    3878:	0087fb93          	andi	s7,a5,8
    387c:	fa0b82e3          	beqz	s7,3820 <vga_draw_string+0x1e0>
    3880:	00170713          	addi	a4,a4,1
    3884:	00180813          	addi	a6,a6,1
    3888:	ef8716e3          	bne	a4,s8,3774 <vga_draw_string+0x134>
    388c:	f69ff06f          	j	37f4 <vga_draw_string+0x1b4>
    3890:	00088713          	mv	a4,a7
    3894:	411707b3          	sub	a5,a4,a7
    3898:	00f307b3          	add	a5,t1,a5
    389c:	0007c783          	lbu	a5,0(a5)
    38a0:	00588c93          	addi	s9,a7,5
    38a4:	0017fb93          	andi	s7,a5,1
    38a8:	0027fd13          	andi	s10,a5,2
    38ac:	0047fc13          	andi	s8,a5,4
    38b0:	0e0b9463          	bnez	s7,3998 <vga_draw_string+0x358>
    38b4:	100d0463          	beqz	s10,39bc <vga_draw_string+0x37c>
    38b8:	1aee6e63          	bltu	t3,a4,3a74 <vga_draw_string+0x434>
    38bc:	00158b93          	addi	s7,a1,1
    38c0:	0e0b8c63          	beqz	s7,39b8 <vga_draw_string+0x378>
    38c4:	040c0663          	beqz	s8,3910 <vga_draw_string+0x2d0>
    38c8:	00258b93          	addi	s7,a1,2
    38cc:	040bd063          	bgez	s7,390c <vga_draw_string+0x2cc>
    38d0:	0087fb93          	andi	s7,a5,8
    38d4:	040b8a63          	beqz	s7,3928 <vga_draw_string+0x2e8>
    38d8:	00358b93          	addi	s7,a1,3
    38dc:	040bd463          	bgez	s7,3924 <vga_draw_string+0x2e4>
    38e0:	0107fb93          	andi	s7,a5,16
    38e4:	040b8e63          	beqz	s7,3940 <vga_draw_string+0x300>
    38e8:	00458b93          	addi	s7,a1,4
    38ec:	040bd863          	bgez	s7,393c <vga_draw_string+0x2fc>
    38f0:	0207fb93          	andi	s7,a5,32
    38f4:	060b8263          	beqz	s7,3958 <vga_draw_string+0x318>
    38f8:	00558b93          	addi	s7,a1,5
    38fc:	040bdc63          	bgez	s7,3954 <vga_draw_string+0x314>
    3900:	0407f793          	andi	a5,a5,64
    3904:	06079063          	bnez	a5,3964 <vga_draw_string+0x324>
    3908:	0680006f          	j	3970 <vga_draw_string+0x330>
    390c:	b0d80023          	sb	a3,-1280(a6)
    3910:	0087fb93          	andi	s7,a5,8
    3914:	000b8a63          	beqz	s7,3928 <vga_draw_string+0x2e8>
    3918:	04ee6c63          	bltu	t3,a4,3970 <vga_draw_string+0x330>
    391c:	00358b93          	addi	s7,a1,3
    3920:	fc0bc0e3          	bltz	s7,38e0 <vga_draw_string+0x2a0>
    3924:	c4d80023          	sb	a3,-960(a6)
    3928:	0107fb93          	andi	s7,a5,16
    392c:	000b8a63          	beqz	s7,3940 <vga_draw_string+0x300>
    3930:	04ee6063          	bltu	t3,a4,3970 <vga_draw_string+0x330>
    3934:	00458b93          	addi	s7,a1,4
    3938:	fa0bcce3          	bltz	s7,38f0 <vga_draw_string+0x2b0>
    393c:	d8d80023          	sb	a3,-640(a6)
    3940:	0207fb93          	andi	s7,a5,32
    3944:	000b8a63          	beqz	s7,3958 <vga_draw_string+0x318>
    3948:	02ee6463          	bltu	t3,a4,3970 <vga_draw_string+0x330>
    394c:	00558b93          	addi	s7,a1,5
    3950:	fa0bc8e3          	bltz	s7,3900 <vga_draw_string+0x2c0>
    3954:	ecd80023          	sb	a3,-320(a6)
    3958:	0407f793          	andi	a5,a5,64
    395c:	00078a63          	beqz	a5,3970 <vga_draw_string+0x330>
    3960:	00ee6863          	bltu	t3,a4,3970 <vga_draw_string+0x330>
    3964:	00658793          	addi	a5,a1,6
    3968:	0007c463          	bltz	a5,3970 <vga_draw_string+0x330>
    396c:	00d80023          	sb	a3,0(a6)
    3970:	00170713          	addi	a4,a4,1
    3974:	00180813          	addi	a6,a6,1
    3978:	e7970ee3          	beq	a4,s9,37f4 <vga_draw_string+0x1b4>
    397c:	411707b3          	sub	a5,a4,a7
    3980:	00f307b3          	add	a5,t1,a5
    3984:	0007c783          	lbu	a5,0(a5)
    3988:	0017fb93          	andi	s7,a5,1
    398c:	0027fd13          	andi	s10,a5,2
    3990:	0047fc13          	andi	s8,a5,4
    3994:	f20b80e3          	beqz	s7,38b4 <vga_draw_string+0x274>
    3998:	04ee6063          	bltu	t3,a4,39d8 <vga_draw_string+0x398>
    399c:	f20d10e3          	bnez	s10,38bc <vga_draw_string+0x27c>
    39a0:	f20c14e3          	bnez	s8,38c8 <vga_draw_string+0x288>
    39a4:	0087fb93          	andi	s7,a5,8
    39a8:	f60b9ae3          	bnez	s7,391c <vga_draw_string+0x2dc>
    39ac:	0107fb93          	andi	s7,a5,16
    39b0:	f80b88e3          	beqz	s7,3940 <vga_draw_string+0x300>
    39b4:	f35ff06f          	j	38e8 <vga_draw_string+0x2a8>
    39b8:	9cd80023          	sb	a3,-1600(a6)
    39bc:	f40c0ae3          	beqz	s8,3910 <vga_draw_string+0x2d0>
    39c0:	f0ee74e3          	bgeu	t3,a4,38c8 <vga_draw_string+0x288>
    39c4:	0087fb93          	andi	s7,a5,8
    39c8:	fa0b94e3          	bnez	s7,3970 <vga_draw_string+0x330>
    39cc:	0207fb93          	andi	s7,a5,32
    39d0:	fa0b90e3          	bnez	s7,3970 <vga_draw_string+0x330>
    39d4:	f85ff06f          	j	3958 <vga_draw_string+0x318>
    39d8:	000d0463          	beqz	s10,39e0 <vga_draw_string+0x3a0>
    39dc:	fe0c14e3          	bnez	s8,39c4 <vga_draw_string+0x384>
    39e0:	0087fb93          	andi	s7,a5,8
    39e4:	f80b96e3          	bnez	s7,3970 <vga_draw_string+0x330>
    39e8:	f41ff06f          	j	3928 <vga_draw_string+0x2e8>
    39ec:	fcc78793          	addi	a5,a5,-52
    39f0:	00279313          	slli	t1,a5,0x2
    39f4:	00f30333          	add	t1,t1,a5
    39f8:	d51ff06f          	j	3748 <vga_draw_string+0x108>
    39fc:	88d80023          	sb	a3,-1920(a6)
    3a00:	040d0e63          	beqz	s10,3a5c <vga_draw_string+0x41c>
    3a04:	e08592e3          	bne	a1,s0,3808 <vga_draw_string+0x1c8>
    3a08:	da0d82e3          	beqz	s11,37ac <vga_draw_string+0x16c>
    3a0c:	d95ff06f          	j	37a0 <vga_draw_string+0x160>
    3a10:	0eb00b93          	li	s7,235
    3a14:	e0bbcee3          	blt	s7,a1,3830 <vga_draw_string+0x1f0>
    3a18:	d8d80023          	sb	a3,-640(a6)
    3a1c:	da9ff06f          	j	37c4 <vga_draw_string+0x184>
    3a20:	0087fb93          	andi	s7,a5,8
    3a24:	040d8063          	beqz	s11,3a64 <vga_draw_string+0x424>
    3a28:	060b8263          	beqz	s7,3a8c <vga_draw_string+0x44c>
    3a2c:	0ec00b93          	li	s7,236
    3a30:	d8bbc6e3          	blt	s7,a1,37bc <vga_draw_string+0x17c>
    3a34:	c4d80023          	sb	a3,-960(a6)
    3a38:	de9ff06f          	j	3820 <vga_draw_string+0x1e0>
    3a3c:	0ea00b93          	li	s7,234
    3a40:	d8bbcae3          	blt	s7,a1,37d4 <vga_draw_string+0x194>
    3a44:	ecd80023          	sb	a3,-320(a6)
    3a48:	df1ff06f          	j	3838 <vga_draw_string+0x1f8>
    3a4c:	fac78793          	addi	a5,a5,-84
    3a50:	00279313          	slli	t1,a5,0x2
    3a54:	00f30333          	add	t1,t1,a5
    3a58:	cf1ff06f          	j	3748 <vga_draw_string+0x108>
    3a5c:	da0d9ce3          	bnez	s11,3814 <vga_draw_string+0x1d4>
    3a60:	0087fb93          	andi	s7,a5,8
    3a64:	d40b9ae3          	bnez	s7,37b8 <vga_draw_string+0x178>
    3a68:	db9ff06f          	j	3820 <vga_draw_string+0x1e0>
    3a6c:	03c00313          	li	t1,60
    3a70:	cd9ff06f          	j	3748 <vga_draw_string+0x108>
    3a74:	f60c16e3          	bnez	s8,39e0 <vga_draw_string+0x3a0>
    3a78:	0087fb93          	andi	s7,a5,8
    3a7c:	ee0b9ae3          	bnez	s7,3970 <vga_draw_string+0x330>
    3a80:	0107fb93          	andi	s7,a5,16
    3a84:	ee0b96e3          	bnez	s7,3970 <vga_draw_string+0x330>
    3a88:	eb9ff06f          	j	3940 <vga_draw_string+0x300>
    3a8c:	0107fb93          	andi	s7,a5,16
    3a90:	d80b9ee3          	bnez	s7,382c <vga_draw_string+0x1ec>
    3a94:	0207fb93          	andi	s7,a5,32
    3a98:	d20b9ce3          	bnez	s7,37d0 <vga_draw_string+0x190>
    3a9c:	d9dff06f          	j	3838 <vga_draw_string+0x1f8>
    3aa0:	00008067          	ret

00003aa4 <vga_draw_block>:
    3aa4:	00451513          	slli	a0,a0,0x4
    3aa8:	13f00793          	li	a5,319
    3aac:	12a7ca63          	blt	a5,a0,3be0 <vga_draw_block+0x13c>
    3ab0:	00459593          	slli	a1,a1,0x4
    3ab4:	01458713          	addi	a4,a1,20
    3ab8:	0ef00793          	li	a5,239
    3abc:	12e7c263          	blt	a5,a4,3be0 <vga_draw_block+0x13c>
    3ac0:	00271793          	slli	a5,a4,0x2
    3ac4:	00e787b3          	add	a5,a5,a4
    3ac8:	00d50893          	addi	a7,a0,13
    3acc:	00679793          	slli	a5,a5,0x6
    3ad0:	fe010113          	addi	sp,sp,-32
    3ad4:	011787b3          	add	a5,a5,a7
    3ad8:	080006b7          	lui	a3,0x8000
    3adc:	00812e23          	sw	s0,28(sp)
    3ae0:	00912c23          	sw	s1,24(sp)
    3ae4:	01212a23          	sw	s2,20(sp)
    3ae8:	01312823          	sw	s3,16(sp)
    3aec:	01412623          	sw	s4,12(sp)
    3af0:	01512423          	sw	s5,8(sp)
    3af4:	00f686b3          	add	a3,a3,a5
    3af8:	02358593          	addi	a1,a1,35
    3afc:	00150a93          	addi	s5,a0,1
    3b00:	00250a13          	addi	s4,a0,2
    3b04:	00350993          	addi	s3,a0,3
    3b08:	00450913          	addi	s2,a0,4
    3b0c:	00550493          	addi	s1,a0,5
    3b10:	00650413          	addi	s0,a0,6
    3b14:	00750393          	addi	t2,a0,7
    3b18:	00850293          	addi	t0,a0,8
    3b1c:	00950f93          	addi	t6,a0,9
    3b20:	00a50f13          	addi	t5,a0,10
    3b24:	00b50e93          	addi	t4,a0,11
    3b28:	00c50e13          	addi	t3,a0,12
    3b2c:	00e50313          	addi	t1,a0,14
    3b30:	0ef00813          	li	a6,239
    3b34:	13f00793          	li	a5,319
    3b38:	06e86e63          	bltu	a6,a4,3bb4 <vga_draw_block+0x110>
    3b3c:	00a7e463          	bltu	a5,a0,3b44 <vga_draw_block+0xa0>
    3b40:	fec689a3          	sb	a2,-13(a3) # 7fffff3 <_stack_end+0x7efa32f>
    3b44:	0157e463          	bltu	a5,s5,3b4c <vga_draw_block+0xa8>
    3b48:	fec68a23          	sb	a2,-12(a3)
    3b4c:	0147e463          	bltu	a5,s4,3b54 <vga_draw_block+0xb0>
    3b50:	fec68aa3          	sb	a2,-11(a3)
    3b54:	0137e463          	bltu	a5,s3,3b5c <vga_draw_block+0xb8>
    3b58:	fec68b23          	sb	a2,-10(a3)
    3b5c:	0127e463          	bltu	a5,s2,3b64 <vga_draw_block+0xc0>
    3b60:	fec68ba3          	sb	a2,-9(a3)
    3b64:	0097e463          	bltu	a5,s1,3b6c <vga_draw_block+0xc8>
    3b68:	fec68c23          	sb	a2,-8(a3)
    3b6c:	0087e463          	bltu	a5,s0,3b74 <vga_draw_block+0xd0>
    3b70:	fec68ca3          	sb	a2,-7(a3)
    3b74:	0077e463          	bltu	a5,t2,3b7c <vga_draw_block+0xd8>
    3b78:	fec68d23          	sb	a2,-6(a3)
    3b7c:	0057e463          	bltu	a5,t0,3b84 <vga_draw_block+0xe0>
    3b80:	fec68da3          	sb	a2,-5(a3)
    3b84:	01f7e463          	bltu	a5,t6,3b8c <vga_draw_block+0xe8>
    3b88:	fec68e23          	sb	a2,-4(a3)
    3b8c:	01e7e463          	bltu	a5,t5,3b94 <vga_draw_block+0xf0>
    3b90:	fec68ea3          	sb	a2,-3(a3)
    3b94:	01d7e463          	bltu	a5,t4,3b9c <vga_draw_block+0xf8>
    3b98:	fec68f23          	sb	a2,-2(a3)
    3b9c:	01c7e463          	bltu	a5,t3,3ba4 <vga_draw_block+0x100>
    3ba0:	fec68fa3          	sb	a2,-1(a3)
    3ba4:	0117e463          	bltu	a5,a7,3bac <vga_draw_block+0x108>
    3ba8:	00c68023          	sb	a2,0(a3)
    3bac:	0067e463          	bltu	a5,t1,3bb4 <vga_draw_block+0x110>
    3bb0:	00c680a3          	sb	a2,1(a3)
    3bb4:	00170713          	addi	a4,a4,1
    3bb8:	14068693          	addi	a3,a3,320
    3bbc:	f6e59ee3          	bne	a1,a4,3b38 <vga_draw_block+0x94>
    3bc0:	01c12403          	lw	s0,28(sp)
    3bc4:	01812483          	lw	s1,24(sp)
    3bc8:	01412903          	lw	s2,20(sp)
    3bcc:	01012983          	lw	s3,16(sp)
    3bd0:	00c12a03          	lw	s4,12(sp)
    3bd4:	00812a83          	lw	s5,8(sp)
    3bd8:	02010113          	addi	sp,sp,32
    3bdc:	00008067          	ret
    3be0:	00008067          	ret

00003be4 <vga_draw_sprite>:
    3be4:	00451513          	slli	a0,a0,0x4
    3be8:	13f00793          	li	a5,319
    3bec:	02a7ca63          	blt	a5,a0,3c20 <vga_draw_sprite+0x3c>
    3bf0:	00459693          	slli	a3,a1,0x4
    3bf4:	01468593          	addi	a1,a3,20
    3bf8:	0ef00793          	li	a5,239
    3bfc:	02b7c263          	blt	a5,a1,3c20 <vga_draw_sprite+0x3c>
    3c00:	00e00793          	li	a5,14
    3c04:	02c7e063          	bltu	a5,a2,3c24 <vga_draw_sprite+0x40>
    3c08:	000067b7          	lui	a5,0x6
    3c0c:	00261613          	slli	a2,a2,0x2
    3c10:	97878793          	addi	a5,a5,-1672 # 5978 <length+0x4>
    3c14:	00f607b3          	add	a5,a2,a5
    3c18:	0007a783          	lw	a5,0(a5)
    3c1c:	00078067          	jr	a5
    3c20:	00008067          	ret
    3c24:	f60fc06f          	j	384 <draw_snake_body>
    3c28:	00259793          	slli	a5,a1,0x2
    3c2c:	00b787b3          	add	a5,a5,a1
    3c30:	00e50e13          	addi	t3,a0,14
    3c34:	00679793          	slli	a5,a5,0x6
    3c38:	fd010113          	addi	sp,sp,-48
    3c3c:	01c787b3          	add	a5,a5,t3
    3c40:	08000737          	lui	a4,0x8000
    3c44:	02812623          	sw	s0,44(sp)
    3c48:	02912423          	sw	s1,40(sp)
    3c4c:	03212223          	sw	s2,36(sp)
    3c50:	03312023          	sw	s3,32(sp)
    3c54:	01412e23          	sw	s4,28(sp)
    3c58:	01512c23          	sw	s5,24(sp)
    3c5c:	01612a23          	sw	s6,20(sp)
    3c60:	00f70733          	add	a4,a4,a5
    3c64:	01712823          	sw	s7,16(sp)
    3c68:	01812623          	sw	s8,12(sp)
    3c6c:	01912423          	sw	s9,8(sp)
    3c70:	01a12223          	sw	s10,4(sp)
    3c74:	02468813          	addi	a6,a3,36
    3c78:	00150b13          	addi	s6,a0,1
    3c7c:	00250a93          	addi	s5,a0,2
    3c80:	00350293          	addi	t0,a0,3
    3c84:	00450493          	addi	s1,a0,4
    3c88:	00550913          	addi	s2,a0,5
    3c8c:	00650313          	addi	t1,a0,6
    3c90:	00750f13          	addi	t5,a0,7
    3c94:	00850e93          	addi	t4,a0,8
    3c98:	00950893          	addi	a7,a0,9
    3c9c:	00a50f93          	addi	t6,a0,10
    3ca0:	00b50993          	addi	s3,a0,11
    3ca4:	00c50393          	addi	t2,a0,12
    3ca8:	00d50413          	addi	s0,a0,13
    3cac:	00f50a13          	addi	s4,a0,15
    3cb0:	0ef00613          	li	a2,239
    3cb4:	13f00793          	li	a5,319
    3cb8:	08b66263          	bltu	a2,a1,3d3c <vga_draw_sprite+0x158>
    3cbc:	00a7e463          	bltu	a5,a0,3cc4 <vga_draw_sprite+0xe0>
    3cc0:	fe070923          	sb	zero,-14(a4) # 7fffff2 <_stack_end+0x7efa32e>
    3cc4:	0167e463          	bltu	a5,s6,3ccc <vga_draw_sprite+0xe8>
    3cc8:	fe0709a3          	sb	zero,-13(a4)
    3ccc:	0157e463          	bltu	a5,s5,3cd4 <vga_draw_sprite+0xf0>
    3cd0:	fe070a23          	sb	zero,-12(a4)
    3cd4:	0057e463          	bltu	a5,t0,3cdc <vga_draw_sprite+0xf8>
    3cd8:	fe070aa3          	sb	zero,-11(a4)
    3cdc:	0097e463          	bltu	a5,s1,3ce4 <vga_draw_sprite+0x100>
    3ce0:	fe070b23          	sb	zero,-10(a4)
    3ce4:	0127e463          	bltu	a5,s2,3cec <vga_draw_sprite+0x108>
    3ce8:	fe070ba3          	sb	zero,-9(a4)
    3cec:	0067e463          	bltu	a5,t1,3cf4 <vga_draw_sprite+0x110>
    3cf0:	fe070c23          	sb	zero,-8(a4)
    3cf4:	01e7e463          	bltu	a5,t5,3cfc <vga_draw_sprite+0x118>
    3cf8:	fe070ca3          	sb	zero,-7(a4)
    3cfc:	01d7e463          	bltu	a5,t4,3d04 <vga_draw_sprite+0x120>
    3d00:	fe070d23          	sb	zero,-6(a4)
    3d04:	0117e463          	bltu	a5,a7,3d0c <vga_draw_sprite+0x128>
    3d08:	fe070da3          	sb	zero,-5(a4)
    3d0c:	01f7e463          	bltu	a5,t6,3d14 <vga_draw_sprite+0x130>
    3d10:	fe070e23          	sb	zero,-4(a4)
    3d14:	0137e463          	bltu	a5,s3,3d1c <vga_draw_sprite+0x138>
    3d18:	fe070ea3          	sb	zero,-3(a4)
    3d1c:	0077e463          	bltu	a5,t2,3d24 <vga_draw_sprite+0x140>
    3d20:	fe070f23          	sb	zero,-2(a4)
    3d24:	0087e463          	bltu	a5,s0,3d2c <vga_draw_sprite+0x148>
    3d28:	fe070fa3          	sb	zero,-1(a4)
    3d2c:	01c7e463          	bltu	a5,t3,3d34 <vga_draw_sprite+0x150>
    3d30:	00070023          	sb	zero,0(a4)
    3d34:	0147e463          	bltu	a5,s4,3d3c <vga_draw_sprite+0x158>
    3d38:	000700a3          	sb	zero,1(a4)
    3d3c:	00158593          	addi	a1,a1,1
    3d40:	14070713          	addi	a4,a4,320
    3d44:	f6b81ae3          	bne	a6,a1,3cb8 <vga_draw_sprite+0xd4>
    3d48:	01d68b93          	addi	s7,a3,29
    3d4c:	002b9793          	slli	a5,s7,0x2
    3d50:	017787b3          	add	a5,a5,s7
    3d54:	9cd50713          	addi	a4,a0,-1587
    3d58:	00679793          	slli	a5,a5,0x6
    3d5c:	00e787b3          	add	a5,a5,a4
    3d60:	080005b7          	lui	a1,0x8000
    3d64:	00f585b3          	add	a1,a1,a5
    3d68:	0ef00c93          	li	s9,239
    3d6c:	ffb00793          	li	a5,-5
    3d70:	01900713          	li	a4,25
    3d74:	13f00613          	li	a2,319
    3d78:	fe000d13          	li	s10,-32
    3d7c:	00600c13          	li	s8,6
    3d80:	00fb8833          	add	a6,s7,a5
    3d84:	0b0ce263          	bltu	s9,a6,3e28 <vga_draw_sprite+0x244>
    3d88:	02f78833          	mul	a6,a5,a5
    3d8c:	01980e13          	addi	t3,a6,25
    3d90:	22ee1463          	bne	t3,a4,3fb8 <vga_draw_sprite+0x3d4>
    3d94:	24566863          	bltu	a2,t0,3fe4 <vga_draw_sprite+0x400>
    3d98:	fe000a13          	li	s4,-32
    3d9c:	ff458b23          	sb	s4,-10(a1) # 7fffff6 <_stack_end+0x7efa332>
    3da0:	01000b13          	li	s6,16
    3da4:	13f00a13          	li	s4,319
    3da8:	009a6663          	bltu	s4,s1,3db4 <vga_draw_sprite+0x1d0>
    3dac:	fe000a13          	li	s4,-32
    3db0:	ff458ba3          	sb	s4,-9(a1)
    3db4:	00980a13          	addi	s4,a6,9
    3db8:	01266663          	bltu	a2,s2,3dc4 <vga_draw_sprite+0x1e0>
    3dbc:	fe000a93          	li	s5,-32
    3dc0:	ff558c23          	sb	s5,-8(a1)
    3dc4:	00480a93          	addi	s5,a6,4
    3dc8:	00666663          	bltu	a2,t1,3dd4 <vga_draw_sprite+0x1f0>
    3dcc:	fe000813          	li	a6,-32
    3dd0:	ff058ca3          	sb	a6,-7(a1)
    3dd4:	1de67a63          	bgeu	a2,t5,3fa8 <vga_draw_sprite+0x3c4>
    3dd8:	1dd67c63          	bgeu	a2,t4,3fb0 <vga_draw_sprite+0x3cc>
    3ddc:	01166663          	bltu	a2,a7,3de8 <vga_draw_sprite+0x204>
    3de0:	fe000813          	li	a6,-32
    3de4:	ff058e23          	sb	a6,-4(a1)
    3de8:	01574863          	blt	a4,s5,3df8 <vga_draw_sprite+0x214>
    3dec:	01f66663          	bltu	a2,t6,3df8 <vga_draw_sprite+0x214>
    3df0:	fe000813          	li	a6,-32
    3df4:	ff058ea3          	sb	a6,-3(a1)
    3df8:	01474863          	blt	a4,s4,3e08 <vga_draw_sprite+0x224>
    3dfc:	01366663          	bltu	a2,s3,3e08 <vga_draw_sprite+0x224>
    3e00:	fe000813          	li	a6,-32
    3e04:	ff058f23          	sb	a6,-2(a1)
    3e08:	01674863          	blt	a4,s6,3e18 <vga_draw_sprite+0x234>
    3e0c:	00766663          	bltu	a2,t2,3e18 <vga_draw_sprite+0x234>
    3e10:	fe000813          	li	a6,-32
    3e14:	ff058fa3          	sb	a6,-1(a1)
    3e18:	00ee1863          	bne	t3,a4,3e28 <vga_draw_sprite+0x244>
    3e1c:	00866663          	bltu	a2,s0,3e28 <vga_draw_sprite+0x244>
    3e20:	fe000813          	li	a6,-32
    3e24:	01058023          	sb	a6,0(a1)
    3e28:	00178793          	addi	a5,a5,1
    3e2c:	14058593          	addi	a1,a1,320
    3e30:	f58798e3          	bne	a5,s8,3d80 <vga_draw_sprite+0x19c>
    3e34:	13f00713          	li	a4,319
    3e38:	01868793          	addi	a5,a3,24
    3e3c:	09d76463          	bltu	a4,t4,3ec4 <vga_draw_sprite+0x2e0>
    3e40:	01768713          	addi	a4,a3,23
    3e44:	0ef00793          	li	a5,239
    3e48:	02e7e263          	bltu	a5,a4,3e6c <vga_draw_sprite+0x288>
    3e4c:	00271793          	slli	a5,a4,0x2
    3e50:	00e787b3          	add	a5,a5,a4
    3e54:	00679793          	slli	a5,a5,0x6
    3e58:	08000737          	lui	a4,0x8000
    3e5c:	01d787b3          	add	a5,a5,t4
    3e60:	00f707b3          	add	a5,a4,a5
    3e64:	01400713          	li	a4,20
    3e68:	00e78023          	sb	a4,0(a5)
    3e6c:	01868793          	addi	a5,a3,24
    3e70:	0ef00713          	li	a4,239
    3e74:	02f76263          	bltu	a4,a5,3e98 <vga_draw_sprite+0x2b4>
    3e78:	00279713          	slli	a4,a5,0x2
    3e7c:	00f70733          	add	a4,a4,a5
    3e80:	00671713          	slli	a4,a4,0x6
    3e84:	08000637          	lui	a2,0x8000
    3e88:	01d70733          	add	a4,a4,t4
    3e8c:	00e60733          	add	a4,a2,a4
    3e90:	01400613          	li	a2,20
    3e94:	00c70023          	sb	a2,0(a4) # 8000000 <_stack_end+0x7efa33c>
    3e98:	01968613          	addi	a2,a3,25
    3e9c:	0ef00713          	li	a4,239
    3ea0:	02c76263          	bltu	a4,a2,3ec4 <vga_draw_sprite+0x2e0>
    3ea4:	00261713          	slli	a4,a2,0x2
    3ea8:	00c70733          	add	a4,a4,a2
    3eac:	00671713          	slli	a4,a4,0x6
    3eb0:	08000637          	lui	a2,0x8000
    3eb4:	01d70733          	add	a4,a4,t4
    3eb8:	00e60733          	add	a4,a2,a4
    3ebc:	01400613          	li	a2,20
    3ec0:	00c70023          	sb	a2,0(a4)
    3ec4:	13f00713          	li	a4,319
    3ec8:	15176063          	bltu	a4,a7,4008 <vga_draw_sprite+0x424>
    3ecc:	1607cc63          	bltz	a5,4044 <vga_draw_sprite+0x460>
    3ed0:	0ef00e13          	li	t3,239
    3ed4:	12fe4e63          	blt	t3,a5,4010 <vga_draw_sprite+0x42c>
    3ed8:	00279613          	slli	a2,a5,0x2
    3edc:	01968813          	addi	a6,a3,25
    3ee0:	00f60633          	add	a2,a2,a5
    3ee4:	00661613          	slli	a2,a2,0x6
    3ee8:	00281593          	slli	a1,a6,0x2
    3eec:	08000537          	lui	a0,0x8000
    3ef0:	00c887b3          	add	a5,a7,a2
    3ef4:	010585b3          	add	a1,a1,a6
    3ef8:	00f507b3          	add	a5,a0,a5
    3efc:	01c00813          	li	a6,28
    3f00:	01f60633          	add	a2,a2,t6
    3f04:	00659593          	slli	a1,a1,0x6
    3f08:	01078023          	sb	a6,0(a5)
    3f0c:	00c507b3          	add	a5,a0,a2
    3f10:	01f58633          	add	a2,a1,t6
    3f14:	01078023          	sb	a6,0(a5)
    3f18:	00c50533          	add	a0,a0,a2
    3f1c:	01050023          	sb	a6,0(a0) # 8000000 <_stack_end+0x7efa33c>
    3f20:	01b68793          	addi	a5,a3,27
    3f24:	1c676663          	bltu	a4,t1,40f0 <vga_draw_sprite+0x50c>
    3f28:	0ef00593          	li	a1,239
    3f2c:	0ef5c263          	blt	a1,a5,4010 <vga_draw_sprite+0x42c>
    3f30:	00279713          	slli	a4,a5,0x2
    3f34:	00f707b3          	add	a5,a4,a5
    3f38:	00679793          	slli	a5,a5,0x6
    3f3c:	08000737          	lui	a4,0x8000
    3f40:	00678633          	add	a2,a5,t1
    3f44:	fff00513          	li	a0,-1
    3f48:	00c70633          	add	a2,a4,a2
    3f4c:	00ff07b3          	add	a5,t5,a5
    3f50:	00a60023          	sb	a0,0(a2) # 8000000 <_stack_end+0x7efa33c>
    3f54:	00f70733          	add	a4,a4,a5
    3f58:	01c68693          	addi	a3,a3,28
    3f5c:	00a70023          	sb	a0,0(a4) # 8000000 <_stack_end+0x7efa33c>
    3f60:	0ad5c863          	blt	a1,a3,4010 <vga_draw_sprite+0x42c>
    3f64:	00269793          	slli	a5,a3,0x2
    3f68:	00d787b3          	add	a5,a5,a3
    3f6c:	00679793          	slli	a5,a5,0x6
    3f70:	08000737          	lui	a4,0x8000
    3f74:	006787b3          	add	a5,a5,t1
    3f78:	00f707b3          	add	a5,a4,a5
    3f7c:	fff00713          	li	a4,-1
    3f80:	00e78023          	sb	a4,0(a5)
    3f84:	08c0006f          	j	4010 <vga_draw_sprite+0x42c>
    3f88:	07200613          	li	a2,114
    3f8c:	ef4fd06f          	j	1680 <draw_snake_head>
    3f90:	06c00613          	li	a2,108
    3f94:	eecfd06f          	j	1680 <draw_snake_head>
    3f98:	06400613          	li	a2,100
    3f9c:	ee4fd06f          	j	1680 <draw_snake_head>
    3fa0:	07500613          	li	a2,117
    3fa4:	edcfd06f          	j	1680 <draw_snake_head>
    3fa8:	fe000813          	li	a6,-32
    3fac:	ff058d23          	sb	a6,-6(a1)
    3fb0:	ffa58da3          	sb	s10,-5(a1)
    3fb4:	e29ff06f          	j	3ddc <vga_draw_sprite+0x1f8>
    3fb8:	01080b13          	addi	s6,a6,16
    3fbc:	df6754e3          	bge	a4,s6,3da4 <vga_draw_sprite+0x1c0>
    3fc0:	00980a13          	addi	s4,a6,9
    3fc4:	df475ae3          	bge	a4,s4,3db8 <vga_draw_sprite+0x1d4>
    3fc8:	00480a93          	addi	s5,a6,4
    3fcc:	df575ee3          	bge	a4,s5,3dc8 <vga_draw_sprite+0x1e4>
    3fd0:	e0e812e3          	bne	a6,a4,3dd4 <vga_draw_sprite+0x1f0>
    3fd4:	e5d66ae3          	bltu	a2,t4,3e28 <vga_draw_sprite+0x244>
    3fd8:	fe000813          	li	a6,-32
    3fdc:	ff058da3          	sb	a6,-5(a1)
    3fe0:	e49ff06f          	j	3e28 <vga_draw_sprite+0x244>
    3fe4:	00966c63          	bltu	a2,s1,3ffc <vga_draw_sprite+0x418>
    3fe8:	fe000a13          	li	s4,-32
    3fec:	ff458ba3          	sb	s4,-9(a1)
    3ff0:	01000b13          	li	s6,16
    3ff4:	00900a13          	li	s4,9
    3ff8:	dc5ff06f          	j	3dbc <vga_draw_sprite+0x1d8>
    3ffc:	00900a13          	li	s4,9
    4000:	01000b13          	li	s6,16
    4004:	db5ff06f          	j	3db8 <vga_draw_sprite+0x1d4>
    4008:	07f77863          	bgeu	a4,t6,4078 <vga_draw_sprite+0x494>
    400c:	0c677c63          	bgeu	a4,t1,40e4 <vga_draw_sprite+0x500>
    4010:	02c12403          	lw	s0,44(sp)
    4014:	02812483          	lw	s1,40(sp)
    4018:	02412903          	lw	s2,36(sp)
    401c:	02012983          	lw	s3,32(sp)
    4020:	01c12a03          	lw	s4,28(sp)
    4024:	01812a83          	lw	s5,24(sp)
    4028:	01412b03          	lw	s6,20(sp)
    402c:	01012b83          	lw	s7,16(sp)
    4030:	00c12c03          	lw	s8,12(sp)
    4034:	00812c83          	lw	s9,8(sp)
    4038:	00412d03          	lw	s10,4(sp)
    403c:	03010113          	addi	sp,sp,48
    4040:	00008067          	ret
    4044:	01b68793          	addi	a5,a3,27
    4048:	06676a63          	bltu	a4,t1,40bc <vga_draw_sprite+0x4d8>
    404c:	fc07c2e3          	bltz	a5,4010 <vga_draw_sprite+0x42c>
    4050:	080007b7          	lui	a5,0x8000
    4054:	14650713          	addi	a4,a0,326
    4058:	fff00693          	li	a3,-1
    405c:	00e78733          	add	a4,a5,a4
    4060:	14750513          	addi	a0,a0,327
    4064:	00d70023          	sb	a3,0(a4) # 8000000 <_stack_end+0x7efa33c>
    4068:	00a787b3          	add	a5,a5,a0
    406c:	00d78023          	sb	a3,0(a5) # 8000000 <_stack_end+0x7efa33c>
    4070:	00000693          	li	a3,0
    4074:	ef1ff06f          	j	3f64 <vga_draw_sprite+0x380>
    4078:	f807cce3          	bltz	a5,4010 <vga_draw_sprite+0x42c>
    407c:	0ef00713          	li	a4,239
    4080:	f8f748e3          	blt	a4,a5,4010 <vga_draw_sprite+0x42c>
    4084:	01968693          	addi	a3,a3,25
    4088:	00279713          	slli	a4,a5,0x2
    408c:	00f707b3          	add	a5,a4,a5
    4090:	00269713          	slli	a4,a3,0x2
    4094:	08000637          	lui	a2,0x8000
    4098:	00d70733          	add	a4,a4,a3
    409c:	00679793          	slli	a5,a5,0x6
    40a0:	01c00693          	li	a3,28
    40a4:	00f607b3          	add	a5,a2,a5
    40a8:	00671713          	slli	a4,a4,0x6
    40ac:	00d78023          	sb	a3,0(a5)
    40b0:	00e60633          	add	a2,a2,a4
    40b4:	00d60023          	sb	a3,0(a2) # 8000000 <_stack_end+0x7efa33c>
    40b8:	f59ff06f          	j	4010 <vga_draw_sprite+0x42c>
    40bc:	f5e76ae3          	bltu	a4,t5,4010 <vga_draw_sprite+0x42c>
    40c0:	f407c8e3          	bltz	a5,4010 <vga_draw_sprite+0x42c>
    40c4:	00279713          	slli	a4,a5,0x2
    40c8:	00f707b3          	add	a5,a4,a5
    40cc:	00679793          	slli	a5,a5,0x6
    40d0:	08000737          	lui	a4,0x8000
    40d4:	00f707b3          	add	a5,a4,a5
    40d8:	fff00713          	li	a4,-1
    40dc:	00e78023          	sb	a4,0(a5)
    40e0:	f31ff06f          	j	4010 <vga_draw_sprite+0x42c>
    40e4:	01b68793          	addi	a5,a3,27
    40e8:	f207c4e3          	bltz	a5,4010 <vga_draw_sprite+0x42c>
    40ec:	e3dff06f          	j	3f28 <vga_draw_sprite+0x344>
    40f0:	f3e760e3          	bltu	a4,t5,4010 <vga_draw_sprite+0x42c>
    40f4:	fcfe58e3          	bge	t3,a5,40c4 <vga_draw_sprite+0x4e0>
    40f8:	f19ff06f          	j	4010 <vga_draw_sprite+0x42c>

000040fc <vga_draw_sprite_directional>:
    40fc:	04068663          	beqz	a3,4148 <vga_draw_sprite_directional+0x4c>
    4100:	07200713          	li	a4,114
    4104:	00e60c63          	beq	a2,a4,411c <vga_draw_sprite_directional+0x20>
    4108:	02c76a63          	bltu	a4,a2,413c <vga_draw_sprite_directional+0x40>
    410c:	06400713          	li	a4,100
    4110:	00e60663          	beq	a2,a4,411c <vga_draw_sprite_directional+0x20>
    4114:	06c00713          	li	a4,108
    4118:	04e61063          	bne	a2,a4,4158 <vga_draw_sprite_directional+0x5c>
    411c:	00451513          	slli	a0,a0,0x4
    4120:	13f00793          	li	a5,319
    4124:	02a7c063          	blt	a5,a0,4144 <vga_draw_sprite_directional+0x48>
    4128:	00459593          	slli	a1,a1,0x4
    412c:	01458593          	addi	a1,a1,20
    4130:	0ef00793          	li	a5,239
    4134:	00b7c863          	blt	a5,a1,4144 <vga_draw_sprite_directional+0x48>
    4138:	d48fd06f          	j	1680 <draw_snake_head>
    413c:	07500713          	li	a4,117
    4140:	fce60ee3          	beq	a2,a4,411c <vga_draw_sprite_directional+0x20>
    4144:	00008067          	ret
    4148:	00459593          	slli	a1,a1,0x4
    414c:	01458593          	addi	a1,a1,20
    4150:	00451513          	slli	a0,a0,0x4
    4154:	a30fc06f          	j	384 <draw_snake_body>
    4158:	00008067          	ret

0000415c <set_leds>:
    415c:	040007b7          	lui	a5,0x4000
    4160:	00a7a023          	sw	a0,0(a5) # 4000000 <_stack_end+0x3efa33c>
    4164:	00008067          	ret

00004168 <get_btn>:
    4168:	040007b7          	lui	a5,0x4000
    416c:	0d07a503          	lw	a0,208(a5) # 40000d0 <_stack_end+0x3efa40c>
    4170:	00f57513          	andi	a0,a0,15
    4174:	00008067          	ret

00004178 <get_sw>:
    4178:	040007b7          	lui	a5,0x4000
    417c:	0107a503          	lw	a0,16(a5) # 4000010 <_stack_end+0x3efa34c>
    4180:	3ff57513          	andi	a0,a0,1023
    4184:	00008067          	ret

00004188 <set_display>:
    4188:	00900793          	li	a5,9
    418c:	07f00713          	li	a4,127
    4190:	00b7ec63          	bltu	a5,a1,41a8 <set_display+0x20>
    4194:	000067b7          	lui	a5,0x6
    4198:	00259593          	slli	a1,a1,0x2
    419c:	b9878793          	addi	a5,a5,-1128 # 5b98 <sev_seg_map.0>
    41a0:	00b787b3          	add	a5,a5,a1
    41a4:	0007a703          	lw	a4,0(a5)
    41a8:	004007b7          	lui	a5,0x400
    41ac:	00578793          	addi	a5,a5,5 # 400005 <_stack_end+0x2fa341>
    41b0:	00f50533          	add	a0,a0,a5
    41b4:	00451513          	slli	a0,a0,0x4
    41b8:	00e52023          	sw	a4,0(a0)
    41bc:	00008067          	ret

000041c0 <rand_range>:
    41c0:	000056b7          	lui	a3,0x5
    41c4:	1386a783          	lw	a5,312(a3) # 5138 <rng_seed>
    41c8:	41c65737          	lui	a4,0x41c65
    41cc:	e6d70713          	addi	a4,a4,-403 # 41c64e6d <_stack_end+0x41b5f1a9>
    41d0:	02e787b3          	mul	a5,a5,a4
    41d4:	00003737          	lui	a4,0x3
    41d8:	03970713          	addi	a4,a4,57 # 3039 <get_char_idx+0xd>
    41dc:	40a585b3          	sub	a1,a1,a0
    41e0:	00e787b3          	add	a5,a5,a4
    41e4:	00179713          	slli	a4,a5,0x1
    41e8:	01175713          	srli	a4,a4,0x11
    41ec:	02b77733          	remu	a4,a4,a1
    41f0:	12f6ac23          	sw	a5,312(a3)
    41f4:	00a70533          	add	a0,a4,a0
    41f8:	00008067          	ret

000041fc <draw_score_hud>:
    41fc:	fe010113          	addi	sp,sp,-32
    4200:	00812c23          	sw	s0,24(sp)
    4204:	00006437          	lui	s0,0x6
    4208:	97042703          	lw	a4,-1680(s0) # 5970 <score>
    420c:	00112e23          	sw	ra,28(sp)
    4210:	00912a23          	sw	s1,20(sp)
    4214:	1a070463          	beqz	a4,43bc <draw_score_hud+0x1c0>
    4218:	24e05263          	blez	a4,445c <draw_score_hud+0x260>
    421c:	00a00693          	li	a3,10
    4220:	02d76633          	rem	a2,a4,a3
    4224:	00900593          	li	a1,9
    4228:	03060613          	addi	a2,a2,48
    422c:	0ff67613          	zext.b	a2,a2
    4230:	00c10023          	sb	a2,0(sp)
    4234:	02d747b3          	div	a5,a4,a3
    4238:	22e5de63          	bge	a1,a4,4474 <draw_score_hud+0x278>
    423c:	06300513          	li	a0,99
    4240:	02d7e5b3          	rem	a1,a5,a3
    4244:	03058593          	addi	a1,a1,48
    4248:	00b100a3          	sb	a1,1(sp)
    424c:	02d7c7b3          	div	a5,a5,a3
    4250:	22e55663          	bge	a0,a4,447c <draw_score_hud+0x280>
    4254:	3e700513          	li	a0,999
    4258:	02d7e5b3          	rem	a1,a5,a3
    425c:	03058593          	addi	a1,a1,48
    4260:	00b10123          	sb	a1,2(sp)
    4264:	02d7c7b3          	div	a5,a5,a3
    4268:	22e55a63          	bge	a0,a4,449c <draw_score_hud+0x2a0>
    426c:	000025b7          	lui	a1,0x2
    4270:	70f58593          	addi	a1,a1,1807 # 270f <draw_snake_head+0x108f>
    4274:	02d7e533          	rem	a0,a5,a3
    4278:	03050513          	addi	a0,a0,48
    427c:	00a101a3          	sb	a0,3(sp)
    4280:	02d7c7b3          	div	a5,a5,a3
    4284:	22e5d263          	bge	a1,a4,44a8 <draw_score_hud+0x2ac>
    4288:	000185b7          	lui	a1,0x18
    428c:	69f58593          	addi	a1,a1,1695 # 1869f <sev_seg_map.0+0x12b07>
    4290:	02d7e533          	rem	a0,a5,a3
    4294:	03050513          	addi	a0,a0,48
    4298:	00a10223          	sb	a0,4(sp)
    429c:	02d7c7b3          	div	a5,a5,a3
    42a0:	20e5dc63          	bge	a1,a4,44b8 <draw_score_hud+0x2bc>
    42a4:	000f45b7          	lui	a1,0xf4
    42a8:	23f58593          	addi	a1,a1,575 # f423f <sev_seg_map.0+0xee6a7>
    42ac:	02d7e533          	rem	a0,a5,a3
    42b0:	03050513          	addi	a0,a0,48
    42b4:	00a102a3          	sb	a0,5(sp)
    42b8:	02d7c7b3          	div	a5,a5,a3
    42bc:	20e5d663          	bge	a1,a4,44c8 <draw_score_hud+0x2cc>
    42c0:	009895b7          	lui	a1,0x989
    42c4:	67f58593          	addi	a1,a1,1663 # 98967f <_stack_end+0x8839bb>
    42c8:	02d7e533          	rem	a0,a5,a3
    42cc:	03050513          	addi	a0,a0,48
    42d0:	00a10323          	sb	a0,6(sp)
    42d4:	02d7c7b3          	div	a5,a5,a3
    42d8:	18e5d663          	bge	a1,a4,4464 <draw_score_hud+0x268>
    42dc:	05f5e5b7          	lui	a1,0x5f5e
    42e0:	0ff58593          	addi	a1,a1,255 # 5f5e0ff <_stack_end+0x5e5843b>
    42e4:	02d7e533          	rem	a0,a5,a3
    42e8:	03050513          	addi	a0,a0,48
    42ec:	00a103a3          	sb	a0,7(sp)
    42f0:	02d7c7b3          	div	a5,a5,a3
    42f4:	1ee5d263          	bge	a1,a4,44d8 <draw_score_hud+0x2dc>
    42f8:	00a00513          	li	a0,10
    42fc:	3b9ad6b7          	lui	a3,0x3b9ad
    4300:	9ff68693          	addi	a3,a3,-1537 # 3b9ac9ff <_stack_end+0x3b8a6d3b>
    4304:	02a7e5b3          	rem	a1,a5,a0
    4308:	03058593          	addi	a1,a1,48
    430c:	00b10423          	sb	a1,8(sp)
    4310:	02a7c7b3          	div	a5,a5,a0
    4314:	1ce6da63          	bge	a3,a4,44e8 <draw_score_hud+0x2ec>
    4318:	03078793          	addi	a5,a5,48
    431c:	00f104a3          	sb	a5,9(sp)
    4320:	00010523          	sb	zero,10(sp)
    4324:	00500593          	li	a1,5
    4328:	00900793          	li	a5,9
    432c:	01078693          	addi	a3,a5,16
    4330:	002686b3          	add	a3,a3,sp
    4334:	00f78713          	addi	a4,a5,15
    4338:	ff06c503          	lbu	a0,-16(a3)
    433c:	00270733          	add	a4,a4,sp
    4340:	fec68823          	sb	a2,-16(a3)
    4344:	ff074683          	lbu	a3,-16(a4)
    4348:	00114603          	lbu	a2,1(sp)
    434c:	00a10023          	sb	a0,0(sp)
    4350:	00d100a3          	sb	a3,1(sp)
    4354:	fec70823          	sb	a2,-16(a4)
    4358:	00200713          	li	a4,2
    435c:	06e58463          	beq	a1,a4,43c4 <draw_score_hud+0x1c8>
    4360:	00e78713          	addi	a4,a5,14
    4364:	00270733          	add	a4,a4,sp
    4368:	ff074503          	lbu	a0,-16(a4)
    436c:	00214603          	lbu	a2,2(sp)
    4370:	00300693          	li	a3,3
    4374:	00a10123          	sb	a0,2(sp)
    4378:	fec70823          	sb	a2,-16(a4)
    437c:	04d58463          	beq	a1,a3,43c4 <draw_score_hud+0x1c8>
    4380:	00d78713          	addi	a4,a5,13
    4384:	00270733          	add	a4,a4,sp
    4388:	ff074503          	lbu	a0,-16(a4)
    438c:	00314603          	lbu	a2,3(sp)
    4390:	00500693          	li	a3,5
    4394:	00a101a3          	sb	a0,3(sp)
    4398:	fec70823          	sb	a2,-16(a4)
    439c:	02d59463          	bne	a1,a3,43c4 <draw_score_hud+0x1c8>
    43a0:	00c78793          	addi	a5,a5,12
    43a4:	002787b3          	add	a5,a5,sp
    43a8:	ff07c683          	lbu	a3,-16(a5)
    43ac:	00414703          	lbu	a4,4(sp)
    43b0:	00d10223          	sb	a3,4(sp)
    43b4:	fee78823          	sb	a4,-16(a5)
    43b8:	00c0006f          	j	43c4 <draw_score_hud+0x1c8>
    43bc:	03000793          	li	a5,48
    43c0:	00f11023          	sh	a5,0(sp)
    43c4:	00006637          	lui	a2,0x6
    43c8:	00000693          	li	a3,0
    43cc:	bc060613          	addi	a2,a2,-1088 # 5bc0 <sev_seg_map.0+0x28>
    43d0:	00500593          	li	a1,5
    43d4:	02d00513          	li	a0,45
    43d8:	a68ff0ef          	jal	3640 <vga_draw_string>
    43dc:	00010613          	mv	a2,sp
    43e0:	0fc00693          	li	a3,252
    43e4:	00500593          	li	a1,5
    43e8:	02d00513          	li	a0,45
    43ec:	a54ff0ef          	jal	3640 <vga_draw_string>
    43f0:	97042583          	lw	a1,-1680(s0)
    43f4:	00a00493          	li	s1,10
    43f8:	00000513          	li	a0,0
    43fc:	0295e5b3          	rem	a1,a1,s1
    4400:	d89ff0ef          	jal	4188 <set_display>
    4404:	97042583          	lw	a1,-1680(s0)
    4408:	00100513          	li	a0,1
    440c:	0295c5b3          	div	a1,a1,s1
    4410:	0295e5b3          	rem	a1,a1,s1
    4414:	d75ff0ef          	jal	4188 <set_display>
    4418:	97042583          	lw	a1,-1680(s0)
    441c:	06400793          	li	a5,100
    4420:	00200513          	li	a0,2
    4424:	02f5c5b3          	div	a1,a1,a5
    4428:	0295e5b3          	rem	a1,a1,s1
    442c:	d5dff0ef          	jal	4188 <set_display>
    4430:	97042583          	lw	a1,-1680(s0)
    4434:	3e800793          	li	a5,1000
    4438:	00300513          	li	a0,3
    443c:	02f5c5b3          	div	a1,a1,a5
    4440:	0295e5b3          	rem	a1,a1,s1
    4444:	d45ff0ef          	jal	4188 <set_display>
    4448:	01c12083          	lw	ra,28(sp)
    444c:	01812403          	lw	s0,24(sp)
    4450:	01412483          	lw	s1,20(sp)
    4454:	02010113          	addi	sp,sp,32
    4458:	00008067          	ret
    445c:	00010023          	sb	zero,0(sp)
    4460:	f65ff06f          	j	43c4 <draw_score_hud+0x1c8>
    4464:	000103a3          	sb	zero,7(sp)
    4468:	00300593          	li	a1,3
    446c:	00600793          	li	a5,6
    4470:	ebdff06f          	j	432c <draw_score_hud+0x130>
    4474:	000100a3          	sb	zero,1(sp)
    4478:	f4dff06f          	j	43c4 <draw_score_hud+0x1c8>
    447c:	00010123          	sb	zero,2(sp)
    4480:	00100793          	li	a5,1
    4484:	01078793          	addi	a5,a5,16
    4488:	002787b3          	add	a5,a5,sp
    448c:	ff07c703          	lbu	a4,-16(a5)
    4490:	fec78823          	sb	a2,-16(a5)
    4494:	00e10023          	sb	a4,0(sp)
    4498:	f2dff06f          	j	43c4 <draw_score_hud+0x1c8>
    449c:	000101a3          	sb	zero,3(sp)
    44a0:	00200793          	li	a5,2
    44a4:	fe1ff06f          	j	4484 <draw_score_hud+0x288>
    44a8:	00010223          	sb	zero,4(sp)
    44ac:	00200593          	li	a1,2
    44b0:	00300793          	li	a5,3
    44b4:	e79ff06f          	j	432c <draw_score_hud+0x130>
    44b8:	000102a3          	sb	zero,5(sp)
    44bc:	00200593          	li	a1,2
    44c0:	00400793          	li	a5,4
    44c4:	e69ff06f          	j	432c <draw_score_hud+0x130>
    44c8:	00010323          	sb	zero,6(sp)
    44cc:	00300593          	li	a1,3
    44d0:	00500793          	li	a5,5
    44d4:	e59ff06f          	j	432c <draw_score_hud+0x130>
    44d8:	00010423          	sb	zero,8(sp)
    44dc:	00400593          	li	a1,4
    44e0:	00700793          	li	a5,7
    44e4:	e49ff06f          	j	432c <draw_score_hud+0x130>
    44e8:	000104a3          	sb	zero,9(sp)
    44ec:	00400593          	li	a1,4
    44f0:	00800793          	li	a5,8
    44f4:	e39ff06f          	j	432c <draw_score_hud+0x130>

000044f8 <spawn_food>:
    44f8:	000067b7          	lui	a5,0x6
    44fc:	9747a283          	lw	t0,-1676(a5) # 5974 <length>
    4500:	10200793          	li	a5,258
    4504:	0c57c463          	blt	a5,t0,45cc <spawn_food+0xd4>
    4508:	00005fb7          	lui	t6,0x5
    450c:	00005f37          	lui	t5,0x5
    4510:	138fa803          	lw	a6,312(t6) # 5138 <rng_seed>
    4514:	ff010113          	addi	sp,sp,-16
    4518:	140f0f13          	addi	t5,t5,320 # 5140 <body_x>
    451c:	00229613          	slli	a2,t0,0x2
    4520:	41c65eb7          	lui	t4,0x41c65
    4524:	00003e37          	lui	t3,0x3
    4528:	00008337          	lui	t1,0x8
    452c:	00812623          	sw	s0,12(sp)
    4530:	00cf0633          	add	a2,t5,a2
    4534:	1f400893          	li	a7,500
    4538:	e6de8e93          	addi	t4,t4,-403 # 41c64e6d <_stack_end+0x41b5f1a9>
    453c:	039e0e13          	addi	t3,t3,57 # 3039 <get_char_idx+0xd>
    4540:	fff30313          	addi	t1,t1,-1 # 7fff <sev_seg_map.0+0x2467>
    4544:	01400413          	li	s0,20
    4548:	00d00393          	li	t2,13
    454c:	03d80533          	mul	a0,a6,t4
    4550:	01c50533          	add	a0,a0,t3
    4554:	03d50833          	mul	a6,a0,t4
    4558:	01055513          	srli	a0,a0,0x10
    455c:	00657533          	and	a0,a0,t1
    4560:	01c80833          	add	a6,a6,t3
    4564:	01085593          	srli	a1,a6,0x10
    4568:	0065f5b3          	and	a1,a1,t1
    456c:	02857533          	remu	a0,a0,s0
    4570:	0275f5b3          	remu	a1,a1,t2
    4574:	02505a63          	blez	t0,45a8 <spawn_food+0xb0>
    4578:	410f0713          	addi	a4,t5,1040
    457c:	000f0793          	mv	a5,t5
    4580:	00c0006f          	j	458c <spawn_food+0x94>
    4584:	00470713          	addi	a4,a4,4
    4588:	02c78063          	beq	a5,a2,45a8 <spawn_food+0xb0>
    458c:	0007a683          	lw	a3,0(a5)
    4590:	00478793          	addi	a5,a5,4
    4594:	fea698e3          	bne	a3,a0,4584 <spawn_food+0x8c>
    4598:	00072683          	lw	a3,0(a4)
    459c:	feb694e3          	bne	a3,a1,4584 <spawn_food+0x8c>
    45a0:	fff88893          	addi	a7,a7,-1
    45a4:	fa0894e3          	bnez	a7,454c <spawn_food+0x54>
    45a8:	00c12403          	lw	s0,12(sp)
    45ac:	000067b7          	lui	a5,0x6
    45b0:	96b7a223          	sw	a1,-1692(a5) # 5964 <food_y>
    45b4:	000067b7          	lui	a5,0x6
    45b8:	96a7a423          	sw	a0,-1688(a5) # 5968 <food_x>
    45bc:	130fac23          	sw	a6,312(t6)
    45c0:	00e00613          	li	a2,14
    45c4:	01010113          	addi	sp,sp,16
    45c8:	e1cff06f          	j	3be4 <vga_draw_sprite>
    45cc:	00008067          	ret

000045d0 <snake_init>:
    45d0:	fe010113          	addi	sp,sp,-32
    45d4:	00006737          	lui	a4,0x6
    45d8:	01312623          	sw	s3,12(sp)
    45dc:	96072823          	sw	zero,-1680(a4) # 5970 <score>
    45e0:	000069b7          	lui	s3,0x6
    45e4:	00500713          	li	a4,5
    45e8:	07200793          	li	a5,114
    45ec:	01412423          	sw	s4,8(sp)
    45f0:	96e9aa23          	sw	a4,-1676(s3) # 5974 <length>
    45f4:	00005a37          	lui	s4,0x5
    45f8:	00005737          	lui	a4,0x5
    45fc:	12fa0ea3          	sb	a5,317(s4) # 513d <dir>
    4600:	12f70e23          	sb	a5,316(a4) # 513c <next_dir>
    4604:	000067b7          	lui	a5,0x6
    4608:	960786a3          	sb	zero,-1683(a5) # 596d <game_over>
    460c:	000067b7          	lui	a5,0x6
    4610:	96078623          	sb	zero,-1684(a5) # 596c <is_paused>
    4614:	00112e23          	sw	ra,28(sp)
    4618:	b61ff0ef          	jal	4178 <get_sw>
    461c:	000037b7          	lui	a5,0x3
    4620:	03978793          	addi	a5,a5,57 # 3039 <get_char_idx+0xd>
    4624:	9749a583          	lw	a1,-1676(s3)
    4628:	00f50533          	add	a0,a0,a5
    462c:	000057b7          	lui	a5,0x5
    4630:	12a7ac23          	sw	a0,312(a5) # 5138 <rng_seed>
    4634:	02b05c63          	blez	a1,466c <snake_init+0x9c>
    4638:	00005737          	lui	a4,0x5
    463c:	14070713          	addi	a4,a4,320 # 5140 <body_x>
    4640:	00a00613          	li	a2,10
    4644:	40b60633          	sub	a2,a2,a1
    4648:	41070693          	addi	a3,a4,1040
    464c:	00a00793          	li	a5,10
    4650:	00600593          	li	a1,6
    4654:	00f72023          	sw	a5,0(a4)
    4658:	00b6a023          	sw	a1,0(a3)
    465c:	fff78793          	addi	a5,a5,-1
    4660:	00470713          	addi	a4,a4,4
    4664:	00468693          	addi	a3,a3,4
    4668:	fec796e3          	bne	a5,a2,4654 <snake_init+0x84>
    466c:	00000513          	li	a0,0
    4670:	a59fe0ef          	jal	30c8 <vga_clear_screen>
    4674:	00006637          	lui	a2,0x6
    4678:	0ff00693          	li	a3,255
    467c:	bc860613          	addi	a2,a2,-1080 # 5bc8 <sev_seg_map.0+0x30>
    4680:	00500593          	li	a1,5
    4684:	00500513          	li	a0,5
    4688:	fb9fe0ef          	jal	3640 <vga_draw_string>
    468c:	00006637          	lui	a2,0x6
    4690:	0fc00693          	li	a3,252
    4694:	bd060613          	addi	a2,a2,-1072 # 5bd0 <sev_seg_map.0+0x38>
    4698:	00500593          	li	a1,5
    469c:	08c00513          	li	a0,140
    46a0:	fa1fe0ef          	jal	3640 <vga_draw_string>
    46a4:	0ff00713          	li	a4,255
    46a8:	01300693          	li	a3,19
    46ac:	13f00613          	li	a2,319
    46b0:	01300593          	li	a1,19
    46b4:	00000513          	li	a0,0
    46b8:	a2dfe0ef          	jal	30e4 <vga_draw_line>
    46bc:	b41ff0ef          	jal	41fc <draw_score_hud>
    46c0:	e39ff0ef          	jal	44f8 <spawn_food>
    46c4:	9749a783          	lw	a5,-1676(s3)
    46c8:	0af05063          	blez	a5,4768 <snake_init+0x198>
    46cc:	00812c23          	sw	s0,24(sp)
    46d0:	00005437          	lui	s0,0x5
    46d4:	14040413          	addi	s0,s0,320 # 5140 <body_x>
    46d8:	41042583          	lw	a1,1040(s0)
    46dc:	00042503          	lw	a0,0(s0)
    46e0:	13da4603          	lbu	a2,317(s4)
    46e4:	00100693          	li	a3,1
    46e8:	00912a23          	sw	s1,20(sp)
    46ec:	a11ff0ef          	jal	40fc <vga_draw_sprite_directional>
    46f0:	9749a783          	lw	a5,-1676(s3)
    46f4:	00100713          	li	a4,1
    46f8:	00440493          	addi	s1,s0,4
    46fc:	41440413          	addi	s0,s0,1044
    4700:	06f75063          	bge	a4,a5,4760 <snake_init+0x190>
    4704:	01212823          	sw	s2,16(sp)
    4708:	00100913          	li	s2,1
    470c:	00042583          	lw	a1,0(s0)
    4710:	0004a503          	lw	a0,0(s1)
    4714:	13da4603          	lbu	a2,317(s4)
    4718:	00000693          	li	a3,0
    471c:	00190913          	addi	s2,s2,1
    4720:	9ddff0ef          	jal	40fc <vga_draw_sprite_directional>
    4724:	9749a783          	lw	a5,-1676(s3)
    4728:	00448493          	addi	s1,s1,4
    472c:	00440413          	addi	s0,s0,4
    4730:	fcf94ee3          	blt	s2,a5,470c <snake_init+0x13c>
    4734:	00900713          	li	a4,9
    4738:	01812403          	lw	s0,24(sp)
    473c:	01412483          	lw	s1,20(sp)
    4740:	01012903          	lw	s2,16(sp)
    4744:	3ff00513          	li	a0,1023
    4748:	02f75063          	bge	a4,a5,4768 <snake_init+0x198>
    474c:	01c12083          	lw	ra,28(sp)
    4750:	00c12983          	lw	s3,12(sp)
    4754:	00812a03          	lw	s4,8(sp)
    4758:	02010113          	addi	sp,sp,32
    475c:	a01ff06f          	j	415c <set_leds>
    4760:	01812403          	lw	s0,24(sp)
    4764:	01412483          	lw	s1,20(sp)
    4768:	01c12083          	lw	ra,28(sp)
    476c:	00c12983          	lw	s3,12(sp)
    4770:	00812a03          	lw	s4,8(sp)
    4774:	00100513          	li	a0,1
    4778:	00f51533          	sll	a0,a0,a5
    477c:	fff50513          	addi	a0,a0,-1
    4780:	02010113          	addi	sp,sp,32
    4784:	9d9ff06f          	j	415c <set_leds>

00004788 <snake_update_input>:
    4788:	000067b7          	lui	a5,0x6
    478c:	96d7c783          	lbu	a5,-1683(a5) # 596d <game_over>
    4790:	00078463          	beqz	a5,4798 <snake_update_input+0x10>
    4794:	00008067          	ret
    4798:	fe010113          	addi	sp,sp,-32
    479c:	00812c23          	sw	s0,24(sp)
    47a0:	01212823          	sw	s2,16(sp)
    47a4:	01412423          	sw	s4,8(sp)
    47a8:	00112e23          	sw	ra,28(sp)
    47ac:	9cdff0ef          	jal	4178 <get_sw>
    47b0:	00157413          	andi	s0,a0,1
    47b4:	00040913          	mv	s2,s0
    47b8:	00006a37          	lui	s4,0x6
    47bc:	0e040863          	beqz	s0,48ac <snake_update_input+0x124>
    47c0:	960a4783          	lbu	a5,-1696(s4) # 5960 <last_pause_state>
    47c4:	0e079463          	bnez	a5,48ac <snake_update_input+0x124>
    47c8:	00006737          	lui	a4,0x6
    47cc:	96c74783          	lbu	a5,-1684(a4) # 596c <is_paused>
    47d0:	0017c793          	xori	a5,a5,1
    47d4:	96f70623          	sb	a5,-1684(a4)
    47d8:	0e079863          	bnez	a5,48c8 <snake_update_input+0x140>
    47dc:	00006637          	lui	a2,0x6
    47e0:	00000693          	li	a3,0
    47e4:	c1860613          	addi	a2,a2,-1000 # 5c18 <sev_seg_map.0+0x80>
    47e8:	06400593          	li	a1,100
    47ec:	07800513          	li	a0,120
    47f0:	01512223          	sw	s5,4(sp)
    47f4:	e4dfe0ef          	jal	3640 <vga_draw_string>
    47f8:	00006637          	lui	a2,0x6
    47fc:	00000693          	li	a3,0
    4800:	c0c60613          	addi	a2,a2,-1012 # 5c0c <sev_seg_map.0+0x74>
    4804:	07800593          	li	a1,120
    4808:	05000513          	li	a0,80
    480c:	e35fe0ef          	jal	3640 <vga_draw_string>
    4810:	000067b7          	lui	a5,0x6
    4814:	9647a583          	lw	a1,-1692(a5) # 5964 <food_y>
    4818:	000067b7          	lui	a5,0x6
    481c:	9687a503          	lw	a0,-1688(a5) # 5968 <food_x>
    4820:	00e00613          	li	a2,14
    4824:	00006ab7          	lui	s5,0x6
    4828:	bbcff0ef          	jal	3be4 <vga_draw_sprite>
    482c:	974aa783          	lw	a5,-1676(s5) # 5974 <length>
    4830:	0cf05663          	blez	a5,48fc <snake_update_input+0x174>
    4834:	00912a23          	sw	s1,20(sp)
    4838:	000054b7          	lui	s1,0x5
    483c:	14048493          	addi	s1,s1,320 # 5140 <body_x>
    4840:	01612023          	sw	s6,0(sp)
    4844:	00005b37          	lui	s6,0x5
    4848:	4104a583          	lw	a1,1040(s1)
    484c:	0004a503          	lw	a0,0(s1)
    4850:	13db4603          	lbu	a2,317(s6) # 513d <dir>
    4854:	00100693          	li	a3,1
    4858:	01312623          	sw	s3,12(sp)
    485c:	8a1ff0ef          	jal	40fc <vga_draw_sprite_directional>
    4860:	974aa703          	lw	a4,-1676(s5)
    4864:	00100793          	li	a5,1
    4868:	00448993          	addi	s3,s1,4
    486c:	41448493          	addi	s1,s1,1044
    4870:	02e7d663          	bge	a5,a4,489c <snake_update_input+0x114>
    4874:	0004a583          	lw	a1,0(s1)
    4878:	0009a503          	lw	a0,0(s3)
    487c:	13db4603          	lbu	a2,317(s6)
    4880:	00000693          	li	a3,0
    4884:	00140413          	addi	s0,s0,1
    4888:	875ff0ef          	jal	40fc <vga_draw_sprite_directional>
    488c:	974aa783          	lw	a5,-1676(s5)
    4890:	00498993          	addi	s3,s3,4
    4894:	00448493          	addi	s1,s1,4
    4898:	fcf44ee3          	blt	s0,a5,4874 <snake_update_input+0xec>
    489c:	01412483          	lw	s1,20(sp)
    48a0:	00c12983          	lw	s3,12(sp)
    48a4:	00412a83          	lw	s5,4(sp)
    48a8:	00012b03          	lw	s6,0(sp)
    48ac:	01c12083          	lw	ra,28(sp)
    48b0:	01812403          	lw	s0,24(sp)
    48b4:	972a0023          	sb	s2,-1696(s4)
    48b8:	01012903          	lw	s2,16(sp)
    48bc:	00812a03          	lw	s4,8(sp)
    48c0:	02010113          	addi	sp,sp,32
    48c4:	00008067          	ret
    48c8:	00006637          	lui	a2,0x6
    48cc:	0fc00693          	li	a3,252
    48d0:	bf060613          	addi	a2,a2,-1040 # 5bf0 <sev_seg_map.0+0x58>
    48d4:	06400593          	li	a1,100
    48d8:	07800513          	li	a0,120
    48dc:	d65fe0ef          	jal	3640 <vga_draw_string>
    48e0:	00006637          	lui	a2,0x6
    48e4:	0ff00693          	li	a3,255
    48e8:	bf860613          	addi	a2,a2,-1032 # 5bf8 <sev_seg_map.0+0x60>
    48ec:	07800593          	li	a1,120
    48f0:	05000513          	li	a0,80
    48f4:	d4dfe0ef          	jal	3640 <vga_draw_string>
    48f8:	fb5ff06f          	j	48ac <snake_update_input+0x124>
    48fc:	00412a83          	lw	s5,4(sp)
    4900:	fadff06f          	j	48ac <snake_update_input+0x124>

00004904 <snake_update_state>:
    4904:	fd010113          	addi	sp,sp,-48
    4908:	01612823          	sw	s6,16(sp)
    490c:	00006b37          	lui	s6,0x6
    4910:	96db4783          	lbu	a5,-1683(s6) # 596d <game_over>
    4914:	02112623          	sw	ra,44(sp)
    4918:	12079663          	bnez	a5,4a44 <snake_update_state+0x140>
    491c:	000067b7          	lui	a5,0x6
    4920:	01712623          	sw	s7,12(sp)
    4924:	96c7cb83          	lbu	s7,-1684(a5) # 596c <is_paused>
    4928:	100b9c63          	bnez	s7,4a40 <snake_update_state+0x13c>
    492c:	000057b7          	lui	a5,0x5
    4930:	13c7c783          	lbu	a5,316(a5) # 513c <next_dir>
    4934:	02912223          	sw	s1,36(sp)
    4938:	03212023          	sw	s2,32(sp)
    493c:	000054b7          	lui	s1,0x5
    4940:	00005937          	lui	s2,0x5
    4944:	02812423          	sw	s0,40(sp)
    4948:	01312e23          	sw	s3,28(sp)
    494c:	01512a23          	sw	s5,20(sp)
    4950:	14090993          	addi	s3,s2,320 # 5140 <body_x>
    4954:	01412c23          	sw	s4,24(sp)
    4958:	12f48ea3          	sb	a5,317(s1) # 513d <dir>
    495c:	07500713          	li	a4,117
    4960:	0009a403          	lw	s0,0(s3)
    4964:	4109aa83          	lw	s5,1040(s3)
    4968:	1ee78e63          	beq	a5,a4,4b64 <snake_update_state+0x260>
    496c:	06400713          	li	a4,100
    4970:	1ee79e63          	bne	a5,a4,4b6c <snake_update_state+0x268>
    4974:	001a8a93          	addi	s5,s5,1
    4978:	801ff0ef          	jal	4178 <get_sw>
    497c:	08057513          	andi	a0,a0,128
    4980:	1c044463          	bltz	s0,4b48 <snake_update_state+0x244>
    4984:	01300793          	li	a5,19
    4988:	0c87d663          	bge	a5,s0,4a54 <snake_update_state+0x150>
    498c:	0c051c63          	bnez	a0,4a64 <snake_update_state+0x160>
    4990:	260ac063          	bltz	s5,4bf0 <snake_update_state+0x2ec>
    4994:	00c00793          	li	a5,12
    4998:	00000413          	li	s0,0
    499c:	2757c063          	blt	a5,s5,4bfc <snake_update_state+0x2f8>
    49a0:	00006a37          	lui	s4,0x6
    49a4:	974a2503          	lw	a0,-1676(s4) # 5974 <length>
    49a8:	fff50593          	addi	a1,a0,-1
    49ac:	0cb05a63          	blez	a1,4a80 <snake_update_state+0x17c>
    49b0:	00098793          	mv	a5,s3
    49b4:	41098693          	addi	a3,s3,1040
    49b8:	00000713          	li	a4,0
    49bc:	00c0006f          	j	49c8 <snake_update_state+0xc4>
    49c0:	00468693          	addi	a3,a3,4
    49c4:	0ab75c63          	bge	a4,a1,4a7c <snake_update_state+0x178>
    49c8:	0007a603          	lw	a2,0(a5)
    49cc:	00170713          	addi	a4,a4,1
    49d0:	00478793          	addi	a5,a5,4
    49d4:	fe8616e3          	bne	a2,s0,49c0 <snake_update_state+0xbc>
    49d8:	0006a603          	lw	a2,0(a3)
    49dc:	ff5612e3          	bne	a2,s5,49c0 <snake_update_state+0xbc>
    49e0:	00006637          	lui	a2,0x6
    49e4:	0e000693          	li	a3,224
    49e8:	c2060613          	addi	a2,a2,-992 # 5c20 <sev_seg_map.0+0x88>
    49ec:	06e00593          	li	a1,110
    49f0:	06400513          	li	a0,100
    49f4:	00100793          	li	a5,1
    49f8:	96fb06a3          	sb	a5,-1683(s6)
    49fc:	c45fe0ef          	jal	3640 <vga_draw_string>
    4a00:	02812403          	lw	s0,40(sp)
    4a04:	02412483          	lw	s1,36(sp)
    4a08:	02012903          	lw	s2,32(sp)
    4a0c:	01c12983          	lw	s3,28(sp)
    4a10:	01812a03          	lw	s4,24(sp)
    4a14:	01412a83          	lw	s5,20(sp)
    4a18:	00c12b83          	lw	s7,12(sp)
    4a1c:	02c12083          	lw	ra,44(sp)
    4a20:	01012b03          	lw	s6,16(sp)
    4a24:	00006637          	lui	a2,0x6
    4a28:	0ff00693          	li	a3,255
    4a2c:	c2c60613          	addi	a2,a2,-980 # 5c2c <sev_seg_map.0+0x94>
    4a30:	08200593          	li	a1,130
    4a34:	05000513          	li	a0,80
    4a38:	03010113          	addi	sp,sp,48
    4a3c:	c05fe06f          	j	3640 <vga_draw_string>
    4a40:	00c12b83          	lw	s7,12(sp)
    4a44:	02c12083          	lw	ra,44(sp)
    4a48:	01012b03          	lw	s6,16(sp)
    4a4c:	03010113          	addi	sp,sp,48
    4a50:	00008067          	ret
    4a54:	180ac863          	bltz	s5,4be4 <snake_update_state+0x2e0>
    4a58:	00c00793          	li	a5,12
    4a5c:	f557d2e3          	bge	a5,s5,49a0 <snake_update_state+0x9c>
    4a60:	18050e63          	beqz	a0,4bfc <snake_update_state+0x2f8>
    4a64:	00006a37          	lui	s4,0x6
    4a68:	974a2503          	lw	a0,-1676(s4) # 5974 <length>
    4a6c:	00100b93          	li	s7,1
    4a70:	fff50593          	addi	a1,a0,-1
    4a74:	f2b04ee3          	bgtz	a1,49b0 <snake_update_state+0xac>
    4a78:	f69ff06f          	j	49e0 <snake_update_state+0xdc>
    4a7c:	f60b92e3          	bnez	s7,49e0 <snake_update_state+0xdc>
    4a80:	000067b7          	lui	a5,0x6
    4a84:	9687a783          	lw	a5,-1688(a5) # 5968 <food_x>
    4a88:	10878263          	beq	a5,s0,4b8c <snake_update_state+0x288>
    4a8c:	00259593          	slli	a1,a1,0x2
    4a90:	00b987b3          	add	a5,s3,a1
    4a94:	4107a583          	lw	a1,1040(a5)
    4a98:	0007a503          	lw	a0,0(a5)
    4a9c:	00000613          	li	a2,0
    4aa0:	804ff0ef          	jal	3aa4 <vga_draw_block>
    4aa4:	974a2783          	lw	a5,-1676(s4)
    4aa8:	00100713          	li	a4,1
    4aac:	14f75c63          	bge	a4,a5,4c04 <snake_update_state+0x300>
    4ab0:	00279793          	slli	a5,a5,0x2
    4ab4:	ff878693          	addi	a3,a5,-8
    4ab8:	41098713          	addi	a4,s3,1040
    4abc:	00d987b3          	add	a5,s3,a3
    4ac0:	00d70733          	add	a4,a4,a3
    4ac4:	14090993          	addi	s3,s2,320
    4ac8:	0007a583          	lw	a1,0(a5)
    4acc:	00072603          	lw	a2,0(a4)
    4ad0:	00078693          	mv	a3,a5
    4ad4:	00b7a223          	sw	a1,4(a5)
    4ad8:	00c72223          	sw	a2,4(a4)
    4adc:	ffc78793          	addi	a5,a5,-4
    4ae0:	ffc70713          	addi	a4,a4,-4
    4ae4:	fed992e3          	bne	s3,a3,4ac8 <snake_update_state+0x1c4>
    4ae8:	13d4c603          	lbu	a2,317(s1)
    4aec:	4149a583          	lw	a1,1044(s3)
    4af0:	0049a503          	lw	a0,4(s3)
    4af4:	00000693          	li	a3,0
    4af8:	0089a023          	sw	s0,0(s3)
    4afc:	4159a823          	sw	s5,1040(s3)
    4b00:	dfcff0ef          	jal	40fc <vga_draw_sprite_directional>
    4b04:	0009a403          	lw	s0,0(s3)
    4b08:	4109aa83          	lw	s5,1040(s3)
    4b0c:	00040513          	mv	a0,s0
    4b10:	02812403          	lw	s0,40(sp)
    4b14:	13d4c603          	lbu	a2,317(s1)
    4b18:	02012903          	lw	s2,32(sp)
    4b1c:	02412483          	lw	s1,36(sp)
    4b20:	01c12983          	lw	s3,28(sp)
    4b24:	01812a03          	lw	s4,24(sp)
    4b28:	00c12b83          	lw	s7,12(sp)
    4b2c:	02c12083          	lw	ra,44(sp)
    4b30:	01012b03          	lw	s6,16(sp)
    4b34:	000a8593          	mv	a1,s5
    4b38:	01412a83          	lw	s5,20(sp)
    4b3c:	00100693          	li	a3,1
    4b40:	03010113          	addi	sp,sp,48
    4b44:	db8ff06f          	j	40fc <vga_draw_sprite_directional>
    4b48:	f0051ee3          	bnez	a0,4a64 <snake_update_state+0x160>
    4b4c:	0c0ac263          	bltz	s5,4c10 <snake_update_state+0x30c>
    4b50:	00c00793          	li	a5,12
    4b54:	0157d463          	bge	a5,s5,4b5c <snake_update_state+0x258>
    4b58:	00000a93          	li	s5,0
    4b5c:	01300413          	li	s0,19
    4b60:	e41ff06f          	j	49a0 <snake_update_state+0x9c>
    4b64:	fffa8a93          	addi	s5,s5,-1
    4b68:	e11ff06f          	j	4978 <snake_update_state+0x74>
    4b6c:	06c00713          	li	a4,108
    4b70:	00e79663          	bne	a5,a4,4b7c <snake_update_state+0x278>
    4b74:	fff40413          	addi	s0,s0,-1
    4b78:	e01ff06f          	j	4978 <snake_update_state+0x74>
    4b7c:	f8e78793          	addi	a5,a5,-114
    4b80:	0017b793          	seqz	a5,a5
    4b84:	00f40433          	add	s0,s0,a5
    4b88:	df1ff06f          	j	4978 <snake_update_state+0x74>
    4b8c:	000067b7          	lui	a5,0x6
    4b90:	9647a783          	lw	a5,-1692(a5) # 5964 <food_y>
    4b94:	ef579ce3          	bne	a5,s5,4a8c <snake_update_state+0x188>
    4b98:	10300793          	li	a5,259
    4b9c:	00a7c663          	blt	a5,a0,4ba8 <snake_update_state+0x2a4>
    4ba0:	00150513          	addi	a0,a0,1
    4ba4:	96aa2a23          	sw	a0,-1676(s4)
    4ba8:	00006737          	lui	a4,0x6
    4bac:	97072783          	lw	a5,-1680(a4) # 5970 <score>
    4bb0:	00178793          	addi	a5,a5,1
    4bb4:	96f72823          	sw	a5,-1680(a4)
    4bb8:	e44ff0ef          	jal	41fc <draw_score_hud>
    4bbc:	93dff0ef          	jal	44f8 <spawn_food>
    4bc0:	974a2783          	lw	a5,-1676(s4)
    4bc4:	00900713          	li	a4,9
    4bc8:	3ff00513          	li	a0,1023
    4bcc:	00f74863          	blt	a4,a5,4bdc <snake_update_state+0x2d8>
    4bd0:	00100513          	li	a0,1
    4bd4:	00f51533          	sll	a0,a0,a5
    4bd8:	fff50513          	addi	a0,a0,-1
    4bdc:	d80ff0ef          	jal	415c <set_leds>
    4be0:	ec5ff06f          	j	4aa4 <snake_update_state+0x1a0>
    4be4:	e80510e3          	bnez	a0,4a64 <snake_update_state+0x160>
    4be8:	00c00a93          	li	s5,12
    4bec:	db5ff06f          	j	49a0 <snake_update_state+0x9c>
    4bf0:	00000413          	li	s0,0
    4bf4:	00c00a93          	li	s5,12
    4bf8:	da9ff06f          	j	49a0 <snake_update_state+0x9c>
    4bfc:	00000a93          	li	s5,0
    4c00:	da1ff06f          	j	49a0 <snake_update_state+0x9c>
    4c04:	0089a023          	sw	s0,0(s3)
    4c08:	4159a823          	sw	s5,1040(s3)
    4c0c:	f01ff06f          	j	4b0c <snake_update_state+0x208>
    4c10:	01300413          	li	s0,19
    4c14:	00c00a93          	li	s5,12
    4c18:	d89ff06f          	j	49a0 <snake_update_state+0x9c>

00004c1c <printc>:
    4c1c:	04000737          	lui	a4,0x4000
    4c20:	04470713          	addi	a4,a4,68 # 4000044 <_stack_end+0x3efa380>
    4c24:	000106b7          	lui	a3,0x10
    4c28:	00072783          	lw	a5,0(a4)
    4c2c:	fed7eee3          	bltu	a5,a3,4c28 <printc+0xc>
    4c30:	040007b7          	lui	a5,0x4000
    4c34:	04a7a023          	sw	a0,64(a5) # 4000040 <_stack_end+0x3efa37c>
    4c38:	00008067          	ret

00004c3c <print>:
    4c3c:	00054603          	lbu	a2,0(a0)
    4c40:	02060863          	beqz	a2,4c70 <print+0x34>
    4c44:	04000737          	lui	a4,0x4000
    4c48:	040005b7          	lui	a1,0x4000
    4c4c:	04470713          	addi	a4,a4,68 # 4000044 <_stack_end+0x3efa380>
    4c50:	000106b7          	lui	a3,0x10
    4c54:	04058593          	addi	a1,a1,64 # 4000040 <_stack_end+0x3efa37c>
    4c58:	00072783          	lw	a5,0(a4)
    4c5c:	fed7eee3          	bltu	a5,a3,4c58 <print+0x1c>
    4c60:	00c5a023          	sw	a2,0(a1)
    4c64:	00154603          	lbu	a2,1(a0)
    4c68:	00150513          	addi	a0,a0,1
    4c6c:	fe0616e3          	bnez	a2,4c58 <print+0x1c>
    4c70:	00008067          	ret

00004c74 <print_dec>:
    4c74:	3b9ad737          	lui	a4,0x3b9ad
    4c78:	040006b7          	lui	a3,0x4000
    4c7c:	04000337          	lui	t1,0x4000
    4c80:	00a00593          	li	a1,10
    4c84:	00000793          	li	a5,0
    4c88:	a0070713          	addi	a4,a4,-1536 # 3b9aca00 <_stack_end+0x3b8a6d3c>
    4c8c:	04468693          	addi	a3,a3,68 # 4000044 <_stack_end+0x3efa380>
    4c90:	00010637          	lui	a2,0x10
    4c94:	04030313          	addi	t1,t1,64 # 4000040 <_stack_end+0x3efa37c>
    4c98:	00a00893          	li	a7,10
    4c9c:	04e57063          	bgeu	a0,a4,4cdc <print_dec+0x68>
    4ca0:	02079e63          	bnez	a5,4cdc <print_dec+0x68>
    4ca4:	fff58593          	addi	a1,a1,-1
    4ca8:	02e57533          	remu	a0,a0,a4
    4cac:	03175733          	divu	a4,a4,a7
    4cb0:	fe0596e3          	bnez	a1,4c9c <print_dec+0x28>
    4cb4:	02079263          	bnez	a5,4cd8 <print_dec+0x64>
    4cb8:	04000737          	lui	a4,0x4000
    4cbc:	04470713          	addi	a4,a4,68 # 4000044 <_stack_end+0x3efa380>
    4cc0:	000106b7          	lui	a3,0x10
    4cc4:	00072783          	lw	a5,0(a4)
    4cc8:	fed7eee3          	bltu	a5,a3,4cc4 <print_dec+0x50>
    4ccc:	040007b7          	lui	a5,0x4000
    4cd0:	03000713          	li	a4,48
    4cd4:	04e7a023          	sw	a4,64(a5) # 4000040 <_stack_end+0x3efa37c>
    4cd8:	00008067          	ret
    4cdc:	02e55833          	divu	a6,a0,a4
    4ce0:	03080813          	addi	a6,a6,48
    4ce4:	0ff87813          	zext.b	a6,a6
    4ce8:	0006a783          	lw	a5,0(a3) # 10000 <sev_seg_map.0+0xa468>
    4cec:	fec7eee3          	bltu	a5,a2,4ce8 <print_dec+0x74>
    4cf0:	01032023          	sw	a6,0(t1)
    4cf4:	00100793          	li	a5,1
    4cf8:	fadff06f          	j	4ca4 <print_dec+0x30>

00004cfc <print_hex32>:
    4cfc:	04000737          	lui	a4,0x4000
    4d00:	04470713          	addi	a4,a4,68 # 4000044 <_stack_end+0x3efa380>
    4d04:	000106b7          	lui	a3,0x10
    4d08:	00072783          	lw	a5,0(a4)
    4d0c:	fed7eee3          	bltu	a5,a3,4d08 <print_hex32+0xc>
    4d10:	03000693          	li	a3,48
    4d14:	040007b7          	lui	a5,0x4000
    4d18:	04000737          	lui	a4,0x4000
    4d1c:	04d7a023          	sw	a3,64(a5) # 4000040 <_stack_end+0x3efa37c>
    4d20:	04470713          	addi	a4,a4,68 # 4000044 <_stack_end+0x3efa380>
    4d24:	000106b7          	lui	a3,0x10
    4d28:	00072783          	lw	a5,0(a4)
    4d2c:	fed7eee3          	bltu	a5,a3,4d28 <print_hex32+0x2c>
    4d30:	04000837          	lui	a6,0x4000
    4d34:	04080813          	addi	a6,a6,64 # 4000040 <_stack_end+0x3efa37c>
    4d38:	04000737          	lui	a4,0x4000
    4d3c:	07800793          	li	a5,120
    4d40:	00f82023          	sw	a5,0(a6)
    4d44:	01c00613          	li	a2,28
    4d48:	00900313          	li	t1,9
    4d4c:	04470713          	addi	a4,a4,68 # 4000044 <_stack_end+0x3efa380>
    4d50:	000106b7          	lui	a3,0x10
    4d54:	ffc00893          	li	a7,-4
    4d58:	00c557b3          	srl	a5,a0,a2
    4d5c:	00f7f793          	andi	a5,a5,15
    4d60:	03778593          	addi	a1,a5,55
    4d64:	00f36463          	bltu	t1,a5,4d6c <print_hex32+0x70>
    4d68:	03078593          	addi	a1,a5,48
    4d6c:	00072783          	lw	a5,0(a4)
    4d70:	fed7eee3          	bltu	a5,a3,4d6c <print_hex32+0x70>
    4d74:	00b82023          	sw	a1,0(a6)
    4d78:	ffc60613          	addi	a2,a2,-4 # fffc <sev_seg_map.0+0xa464>
    4d7c:	fd161ee3          	bne	a2,a7,4d58 <print_hex32+0x5c>
    4d80:	00008067          	ret

00004d84 <handle_exception>:
    4d84:	00200793          	li	a5,2
    4d88:	18f80863          	beq	a6,a5,4f18 <handle_exception+0x194>
    4d8c:	00b00793          	li	a5,11
    4d90:	12f80063          	beq	a6,a5,4eb0 <handle_exception+0x12c>
    4d94:	04000737          	lui	a4,0x4000
    4d98:	14081463          	bnez	a6,4ee0 <handle_exception+0x15c>
    4d9c:	04000837          	lui	a6,0x4000
    4da0:	00006637          	lui	a2,0x6
    4da4:	c3c60613          	addi	a2,a2,-964 # 5c3c <sev_seg_map.0+0xa4>
    4da8:	00a00593          	li	a1,10
    4dac:	04470713          	addi	a4,a4,68 # 4000044 <_stack_end+0x3efa380>
    4db0:	000106b7          	lui	a3,0x10
    4db4:	04080813          	addi	a6,a6,64 # 4000040 <_stack_end+0x3efa37c>
    4db8:	00072783          	lw	a5,0(a4)
    4dbc:	fed7eee3          	bltu	a5,a3,4db8 <handle_exception+0x34>
    4dc0:	00b82023          	sw	a1,0(a6)
    4dc4:	00164583          	lbu	a1,1(a2)
    4dc8:	00160613          	addi	a2,a2,1
    4dcc:	fe0596e3          	bnez	a1,4db8 <handle_exception+0x34>
    4dd0:	04000737          	lui	a4,0x4000
    4dd4:	04000837          	lui	a6,0x4000
    4dd8:	00006637          	lui	a2,0x6
    4ddc:	cb060613          	addi	a2,a2,-848 # 5cb0 <sev_seg_map.0+0x118>
    4de0:	04500593          	li	a1,69
    4de4:	04470713          	addi	a4,a4,68 # 4000044 <_stack_end+0x3efa380>
    4de8:	000106b7          	lui	a3,0x10
    4dec:	04080813          	addi	a6,a6,64 # 4000040 <_stack_end+0x3efa37c>
    4df0:	00072783          	lw	a5,0(a4)
    4df4:	fed7eee3          	bltu	a5,a3,4df0 <handle_exception+0x6c>
    4df8:	00b82023          	sw	a1,0(a6)
    4dfc:	00164583          	lbu	a1,1(a2)
    4e00:	00160613          	addi	a2,a2,1
    4e04:	fe0596e3          	bnez	a1,4df0 <handle_exception+0x6c>
    4e08:	04000737          	lui	a4,0x4000
    4e0c:	04470713          	addi	a4,a4,68 # 4000044 <_stack_end+0x3efa380>
    4e10:	000106b7          	lui	a3,0x10
    4e14:	00072783          	lw	a5,0(a4)
    4e18:	fed7eee3          	bltu	a5,a3,4e14 <handle_exception+0x90>
    4e1c:	03000693          	li	a3,48
    4e20:	040007b7          	lui	a5,0x4000
    4e24:	04000737          	lui	a4,0x4000
    4e28:	04d7a023          	sw	a3,64(a5) # 4000040 <_stack_end+0x3efa37c>
    4e2c:	04470713          	addi	a4,a4,68 # 4000044 <_stack_end+0x3efa380>
    4e30:	000106b7          	lui	a3,0x10
    4e34:	00072783          	lw	a5,0(a4)
    4e38:	fed7eee3          	bltu	a5,a3,4e34 <handle_exception+0xb0>
    4e3c:	04000837          	lui	a6,0x4000
    4e40:	04080813          	addi	a6,a6,64 # 4000040 <_stack_end+0x3efa37c>
    4e44:	04000737          	lui	a4,0x4000
    4e48:	07800793          	li	a5,120
    4e4c:	00f82023          	sw	a5,0(a6)
    4e50:	01c00613          	li	a2,28
    4e54:	00900313          	li	t1,9
    4e58:	04470713          	addi	a4,a4,68 # 4000044 <_stack_end+0x3efa380>
    4e5c:	000106b7          	lui	a3,0x10
    4e60:	ffc00893          	li	a7,-4
    4e64:	00c557b3          	srl	a5,a0,a2
    4e68:	00f7f793          	andi	a5,a5,15
    4e6c:	03778593          	addi	a1,a5,55
    4e70:	00f36463          	bltu	t1,a5,4e78 <handle_exception+0xf4>
    4e74:	03078593          	addi	a1,a5,48
    4e78:	00072783          	lw	a5,0(a4)
    4e7c:	fed7eee3          	bltu	a5,a3,4e78 <handle_exception+0xf4>
    4e80:	00b82023          	sw	a1,0(a6)
    4e84:	ffc60613          	addi	a2,a2,-4
    4e88:	fd161ee3          	bne	a2,a7,4e64 <handle_exception+0xe0>
    4e8c:	04000737          	lui	a4,0x4000
    4e90:	04470713          	addi	a4,a4,68 # 4000044 <_stack_end+0x3efa380>
    4e94:	000106b7          	lui	a3,0x10
    4e98:	00072783          	lw	a5,0(a4)
    4e9c:	fed7eee3          	bltu	a5,a3,4e98 <handle_exception+0x114>
    4ea0:	040007b7          	lui	a5,0x4000
    4ea4:	00a00713          	li	a4,10
    4ea8:	04e7a023          	sw	a4,64(a5) # 4000040 <_stack_end+0x3efa37c>
    4eac:	0000006f          	j	4eac <handle_exception+0x128>
    4eb0:	00400793          	li	a5,4
    4eb4:	0af88063          	beq	a7,a5,4f54 <handle_exception+0x1d0>
    4eb8:	0d089a63          	bne	a7,a6,4f8c <handle_exception+0x208>
    4ebc:	04000737          	lui	a4,0x4000
    4ec0:	04470713          	addi	a4,a4,68 # 4000044 <_stack_end+0x3efa380>
    4ec4:	000106b7          	lui	a3,0x10
    4ec8:	00072783          	lw	a5,0(a4)
    4ecc:	fed7eee3          	bltu	a5,a3,4ec8 <handle_exception+0x144>
    4ed0:	040007b7          	lui	a5,0x4000
    4ed4:	0ff57513          	zext.b	a0,a0
    4ed8:	04a7a023          	sw	a0,64(a5) # 4000040 <_stack_end+0x3efa37c>
    4edc:	00008067          	ret
    4ee0:	04000837          	lui	a6,0x4000
    4ee4:	00006637          	lui	a2,0x6
    4ee8:	c9060613          	addi	a2,a2,-880 # 5c90 <sev_seg_map.0+0xf8>
    4eec:	00a00593          	li	a1,10
    4ef0:	04470713          	addi	a4,a4,68
    4ef4:	000106b7          	lui	a3,0x10
    4ef8:	04080813          	addi	a6,a6,64 # 4000040 <_stack_end+0x3efa37c>
    4efc:	00072783          	lw	a5,0(a4)
    4f00:	fed7eee3          	bltu	a5,a3,4efc <handle_exception+0x178>
    4f04:	00b82023          	sw	a1,0(a6)
    4f08:	00164583          	lbu	a1,1(a2)
    4f0c:	00160613          	addi	a2,a2,1
    4f10:	fe0596e3          	bnez	a1,4efc <handle_exception+0x178>
    4f14:	ebdff06f          	j	4dd0 <handle_exception+0x4c>
    4f18:	04000737          	lui	a4,0x4000
    4f1c:	04000837          	lui	a6,0x4000
    4f20:	00006637          	lui	a2,0x6
    4f24:	c6c60613          	addi	a2,a2,-916 # 5c6c <sev_seg_map.0+0xd4>
    4f28:	00a00593          	li	a1,10
    4f2c:	04470713          	addi	a4,a4,68 # 4000044 <_stack_end+0x3efa380>
    4f30:	000106b7          	lui	a3,0x10
    4f34:	04080813          	addi	a6,a6,64 # 4000040 <_stack_end+0x3efa37c>
    4f38:	00072783          	lw	a5,0(a4)
    4f3c:	fed7eee3          	bltu	a5,a3,4f38 <handle_exception+0x1b4>
    4f40:	00b82023          	sw	a1,0(a6)
    4f44:	00164583          	lbu	a1,1(a2)
    4f48:	00160613          	addi	a2,a2,1
    4f4c:	fe0596e3          	bnez	a1,4f38 <handle_exception+0x1b4>
    4f50:	e81ff06f          	j	4dd0 <handle_exception+0x4c>
    4f54:	00054603          	lbu	a2,0(a0)
    4f58:	02060a63          	beqz	a2,4f8c <handle_exception+0x208>
    4f5c:	04000737          	lui	a4,0x4000
    4f60:	040005b7          	lui	a1,0x4000
    4f64:	04470713          	addi	a4,a4,68 # 4000044 <_stack_end+0x3efa380>
    4f68:	000106b7          	lui	a3,0x10
    4f6c:	04058593          	addi	a1,a1,64 # 4000040 <_stack_end+0x3efa37c>
    4f70:	00072783          	lw	a5,0(a4)
    4f74:	fed7eee3          	bltu	a5,a3,4f70 <handle_exception+0x1ec>
    4f78:	00c5a023          	sw	a2,0(a1)
    4f7c:	00154603          	lbu	a2,1(a0)
    4f80:	00150513          	addi	a0,a0,1
    4f84:	fe0616e3          	bnez	a2,4f70 <handle_exception+0x1ec>
    4f88:	00008067          	ret
    4f8c:	00008067          	ret

00004f90 <nextprime>:
    4f90:	00200713          	li	a4,2
    4f94:	00050793          	mv	a5,a0
    4f98:	02a74063          	blt	a4,a0,4fb8 <nextprime+0x28>
    4f9c:	00100513          	li	a0,1
    4fa0:	00f05a63          	blez	a5,4fb4 <nextprime+0x24>
    4fa4:	fff78793          	addi	a5,a5,-1
    4fa8:	00f037b3          	snez	a5,a5
    4fac:	00278513          	addi	a0,a5,2
    4fb0:	00008067          	ret
    4fb4:	00008067          	ret
    4fb8:	00150793          	addi	a5,a0,1
    4fbc:	0017e513          	ori	a0,a5,1
    4fc0:	00300613          	li	a2,3
    4fc4:	02c567b3          	rem	a5,a0,a2
    4fc8:	40155693          	srai	a3,a0,0x1
    4fcc:	02078263          	beqz	a5,4ff0 <nextprime+0x60>
    4fd0:	00268693          	addi	a3,a3,2 # 10002 <sev_seg_map.0+0xa46a>
    4fd4:	00300793          	li	a5,3
    4fd8:	00c0006f          	j	4fe4 <nextprime+0x54>
    4fdc:	02f56733          	rem	a4,a0,a5
    4fe0:	00070863          	beqz	a4,4ff0 <nextprime+0x60>
    4fe4:	00178793          	addi	a5,a5,1
    4fe8:	fef69ae3          	bne	a3,a5,4fdc <nextprime+0x4c>
    4fec:	00008067          	ret
    4ff0:	00250513          	addi	a0,a0,2
    4ff4:	fd1ff06f          	j	4fc4 <nextprime+0x34>

00004ff8 <handle_interrupt>:
    4ff8:	00008067          	ret

00004ffc <main>:
    4ffc:	ff010113          	addi	sp,sp,-16
    5000:	00000513          	li	a0,0
    5004:	00112623          	sw	ra,12(sp)
    5008:	954ff0ef          	jal	415c <set_leds>
    500c:	dc4ff0ef          	jal	45d0 <snake_init>
    5010:	968ff0ef          	jal	4178 <get_sw>
    5014:	20057513          	andi	a0,a0,512
    5018:	02051663          	bnez	a0,5044 <main+0x48>
    501c:	f6cff0ef          	jal	4788 <snake_update_input>
    5020:	8e5ff0ef          	jal	4904 <snake_update_state>
    5024:	954ff0ef          	jal	4178 <get_sw>
    5028:	10057513          	andi	a0,a0,256
    502c:	04050463          	beqz	a0,5074 <main+0x78>
    5030:	09600513          	li	a0,150
    5034:	aa4fb0ef          	jal	2d8 <delay>
    5038:	940ff0ef          	jal	4178 <get_sw>
    503c:	20057513          	andi	a0,a0,512
    5040:	fc050ee3          	beqz	a0,501c <main+0x20>
    5044:	d8cff0ef          	jal	45d0 <snake_init>
    5048:	0080006f          	j	5050 <main+0x54>
    504c:	a8cfb0ef          	jal	2d8 <delay>
    5050:	928ff0ef          	jal	4178 <get_sw>
    5054:	20057793          	andi	a5,a0,512
    5058:	03200513          	li	a0,50
    505c:	fe0798e3          	bnez	a5,504c <main+0x50>
    5060:	f28ff0ef          	jal	4788 <snake_update_input>
    5064:	8a1ff0ef          	jal	4904 <snake_update_state>
    5068:	910ff0ef          	jal	4178 <get_sw>
    506c:	10057513          	andi	a0,a0,256
    5070:	fc0510e3          	bnez	a0,5030 <main+0x34>
    5074:	19000513          	li	a0,400
    5078:	a60fb0ef          	jal	2d8 <delay>
    507c:	f95ff06f          	j	5010 <main+0x14>

Disassembly of section .data:

00005080 <welcome_msg>:
    5080:	3d3d                	.insn	2, 0x3d3d
    5082:	3d3d                	.insn	2, 0x3d3d
    5084:	3d3d                	.insn	2, 0x3d3d
    5086:	3d3d                	.insn	2, 0x3d3d
    5088:	3d3d                	.insn	2, 0x3d3d
    508a:	3d3d                	.insn	2, 0x3d3d
    508c:	3d3d                	.insn	2, 0x3d3d
    508e:	3d3d                	.insn	2, 0x3d3d
    5090:	3d3d                	.insn	2, 0x3d3d
    5092:	3d3d                	.insn	2, 0x3d3d
    5094:	3d3d                	.insn	2, 0x3d3d
    5096:	3d3d                	.insn	2, 0x3d3d
    5098:	3d3d                	.insn	2, 0x3d3d
    509a:	3d3d                	.insn	2, 0x3d3d
    509c:	3d3d                	.insn	2, 0x3d3d
    509e:	3d3d                	.insn	2, 0x3d3d
    50a0:	3d3d                	.insn	2, 0x3d3d
    50a2:	3d3d                	.insn	2, 0x3d3d
    50a4:	3d3d                	.insn	2, 0x3d3d
    50a6:	3d3d                	.insn	2, 0x3d3d
    50a8:	3d3d                	.insn	2, 0x3d3d
    50aa:	3d3d                	.insn	2, 0x3d3d
    50ac:	3d3d                	.insn	2, 0x3d3d
    50ae:	3d3d                	.insn	2, 0x3d3d
    50b0:	3d0a                	.insn	2, 0x3d0a
    50b2:	3d3d                	.insn	2, 0x3d3d
    50b4:	3d3d                	.insn	2, 0x3d3d
    50b6:	5220                	.insn	2, 0x5220
    50b8:	5349                	.insn	2, 0x5349
    50ba:	20562d43          	.insn	4, 0x20562d43
    50be:	6f42                	.insn	2, 0x6f42
    50c0:	552d746f          	jal	s0,dc612 <sev_seg_map.0+0xd6a7a>
    50c4:	2070                	.insn	2, 0x2070
    50c6:	7250                	.insn	2, 0x7250
    50c8:	7365636f          	jal	t1,5b7fe <sev_seg_map.0+0x55c66>
    50cc:	6f4e2073          	csrs	0x6f4,t3
    50d0:	6f432077          	.insn	4, 0x6f432077
    50d4:	706d                	.insn	2, 0x706d
    50d6:	656c                	.insn	2, 0x656c
    50d8:	6574                	.insn	2, 0x6574
    50da:	3d20                	.insn	2, 0x3d20
    50dc:	3d3d                	.insn	2, 0x3d3d
    50de:	3d3d                	.insn	2, 0x3d3d
    50e0:	0a3d                	.insn	2, 0x0a3d
    50e2:	3d3d                	.insn	2, 0x3d3d
    50e4:	3d3d                	.insn	2, 0x3d3d
    50e6:	3d3d                	.insn	2, 0x3d3d
    50e8:	3d3d                	.insn	2, 0x3d3d
    50ea:	3d3d                	.insn	2, 0x3d3d
    50ec:	3d3d                	.insn	2, 0x3d3d
    50ee:	3d3d                	.insn	2, 0x3d3d
    50f0:	3d3d                	.insn	2, 0x3d3d
    50f2:	3d3d                	.insn	2, 0x3d3d
    50f4:	3d3d                	.insn	2, 0x3d3d
    50f6:	3d3d                	.insn	2, 0x3d3d
    50f8:	3d3d                	.insn	2, 0x3d3d
    50fa:	3d3d                	.insn	2, 0x3d3d
    50fc:	3d3d                	.insn	2, 0x3d3d
    50fe:	3d3d                	.insn	2, 0x3d3d
    5100:	3d3d                	.insn	2, 0x3d3d
    5102:	3d3d                	.insn	2, 0x3d3d
    5104:	3d3d                	.insn	2, 0x3d3d
    5106:	3d3d                	.insn	2, 0x3d3d
    5108:	3d3d                	.insn	2, 0x3d3d
    510a:	3d3d                	.insn	2, 0x3d3d
    510c:	3d3d                	.insn	2, 0x3d3d
    510e:	3d3d                	.insn	2, 0x3d3d
    5110:	3d3d                	.insn	2, 0x3d3d
    5112:	000a                	.insn	2, 0x000a

00005114 <mytime>:
    5114:	00005957          	.insn	4, 0x5957

00005118 <timstr>:
    5118:	6574                	.insn	2, 0x6574
    511a:	7478                	.insn	2, 0x7478
    511c:	6d20                	.insn	2, 0x6d20
    511e:	2065726f          	jal	tp,5c324 <sev_seg_map.0+0x5678c>
    5122:	6574                	.insn	2, 0x6574
    5124:	7478                	.insn	2, 0x7478
    5126:	6c20                	.insn	2, 0x6c20
    5128:	2073746f          	jal	s0,3cb2e <sev_seg_map.0+0x36f96>
    512c:	7420666f          	jal	a2,b86e <sev_seg_map.0+0x5cd6>
    5130:	7865                	.insn	2, 0x7865
    5132:	0074                	.insn	2, 0x0074
    5134:	0000                	.insn	2, 0x
	...

00005138 <rng_seed>:
    5138:	0001                	.insn	2, 0x0001
	...

0000513c <next_dir>:
    513c:	                	.insn	2, 0x7272

0000513d <dir>:
    513d:	Address 0x513d is out of bounds.


Disassembly of section .rodata:

00005978 <CSWTCH.12-0x3c>:
    5978:	3fa0                	.insn	2, 0x3fa0
    597a:	0000                	.insn	2, 0x
    597c:	3f98                	.insn	2, 0x3f98
    597e:	0000                	.insn	2, 0x
    5980:	3f90                	.insn	2, 0x3f90
    5982:	0000                	.insn	2, 0x
    5984:	3f88                	.insn	2, 0x3f88
    5986:	0000                	.insn	2, 0x
    5988:	3c24                	.insn	2, 0x3c24
    598a:	0000                	.insn	2, 0x
    598c:	3c24                	.insn	2, 0x3c24
    598e:	0000                	.insn	2, 0x
    5990:	3c24                	.insn	2, 0x3c24
    5992:	0000                	.insn	2, 0x
    5994:	3c24                	.insn	2, 0x3c24
    5996:	0000                	.insn	2, 0x
    5998:	3c24                	.insn	2, 0x3c24
    599a:	0000                	.insn	2, 0x
    599c:	3c24                	.insn	2, 0x3c24
    599e:	0000                	.insn	2, 0x
    59a0:	3c24                	.insn	2, 0x3c24
    59a2:	0000                	.insn	2, 0x
    59a4:	3c24                	.insn	2, 0x3c24
    59a6:	0000                	.insn	2, 0x
    59a8:	3c24                	.insn	2, 0x3c24
    59aa:	0000                	.insn	2, 0x
    59ac:	3c24                	.insn	2, 0x3c24
    59ae:	0000                	.insn	2, 0x
    59b0:	3c28                	.insn	2, 0x3c28
	...

000059b4 <CSWTCH.12>:
    59b4:	000a                	.insn	2, 0x000a
    59b6:	0000                	.insn	2, 0x
    59b8:	0000000b          	.insn	4, 0x000b
    59bc:	0000000b          	.insn	4, 0x000b
    59c0:	0000000b          	.insn	4, 0x000b
    59c4:	0000000b          	.insn	4, 0x000b
    59c8:	0000000b          	.insn	4, 0x000b
    59cc:	0000000b          	.insn	4, 0x000b
    59d0:	0000000b          	.insn	4, 0x000b
    59d4:	0004                	.insn	2, 0x0004
    59d6:	0000                	.insn	2, 0x
    59d8:	0000000b          	.insn	4, 0x000b
    59dc:	0000000b          	.insn	4, 0x000b
    59e0:	0000000b          	.insn	4, 0x000b
    59e4:	0000000b          	.insn	4, 0x000b
    59e8:	0000000b          	.insn	4, 0x000b
    59ec:	0000000b          	.insn	4, 0x000b
    59f0:	0000000b          	.insn	4, 0x000b
    59f4:	0000000b          	.insn	4, 0x000b
    59f8:	000a                	.insn	2, 0x000a
	...

000059fc <CSWTCH.13>:
    59fc:	0000000b          	.insn	4, 0x000b
    5a00:	000a                	.insn	2, 0x000a
    5a02:	0000                	.insn	2, 0x
    5a04:	000a                	.insn	2, 0x000a
    5a06:	0000                	.insn	2, 0x
    5a08:	000a                	.insn	2, 0x000a
    5a0a:	0000                	.insn	2, 0x
    5a0c:	000a                	.insn	2, 0x000a
    5a0e:	0000                	.insn	2, 0x
    5a10:	000a                	.insn	2, 0x000a
    5a12:	0000                	.insn	2, 0x
    5a14:	000a                	.insn	2, 0x000a
    5a16:	0000                	.insn	2, 0x
    5a18:	000a                	.insn	2, 0x000a
    5a1a:	0000                	.insn	2, 0x
    5a1c:	000a                	.insn	2, 0x000a
    5a1e:	0000                	.insn	2, 0x
    5a20:	000a                	.insn	2, 0x000a
    5a22:	0000                	.insn	2, 0x
    5a24:	000a                	.insn	2, 0x000a
    5a26:	0000                	.insn	2, 0x
    5a28:	000a                	.insn	2, 0x000a
    5a2a:	0000                	.insn	2, 0x
    5a2c:	000a                	.insn	2, 0x000a
    5a2e:	0000                	.insn	2, 0x
    5a30:	000a                	.insn	2, 0x000a
    5a32:	0000                	.insn	2, 0x
    5a34:	000a                	.insn	2, 0x000a
    5a36:	0000                	.insn	2, 0x
    5a38:	000a                	.insn	2, 0x000a
    5a3a:	0000                	.insn	2, 0x
    5a3c:	000a                	.insn	2, 0x000a
    5a3e:	0000                	.insn	2, 0x
    5a40:	0004                	.insn	2, 0x0004
	...

00005a44 <CSWTCH.10>:
    5a44:	0005                	.insn	2, 0x0005
    5a46:	0000                	.insn	2, 0x
    5a48:	0000000b          	.insn	4, 0x000b
    5a4c:	0000000b          	.insn	4, 0x000b
    5a50:	0000000b          	.insn	4, 0x000b
    5a54:	0000000b          	.insn	4, 0x000b
    5a58:	0000000b          	.insn	4, 0x000b
    5a5c:	0000000b          	.insn	4, 0x000b
    5a60:	0000000b          	.insn	4, 0x000b
    5a64:	0004                	.insn	2, 0x0004
    5a66:	0000                	.insn	2, 0x
    5a68:	0000000b          	.insn	4, 0x000b
    5a6c:	0000000b          	.insn	4, 0x000b
    5a70:	0000000b          	.insn	4, 0x000b
    5a74:	0000000b          	.insn	4, 0x000b
    5a78:	0000000b          	.insn	4, 0x000b
    5a7c:	0000000b          	.insn	4, 0x000b
    5a80:	0000000b          	.insn	4, 0x000b
    5a84:	0000000b          	.insn	4, 0x000b
    5a88:	0005                	.insn	2, 0x0005
	...

00005a8c <CSWTCH.11>:
    5a8c:	0000000b          	.insn	4, 0x000b
    5a90:	0005                	.insn	2, 0x0005
    5a92:	0000                	.insn	2, 0x
    5a94:	0005                	.insn	2, 0x0005
    5a96:	0000                	.insn	2, 0x
    5a98:	0005                	.insn	2, 0x0005
    5a9a:	0000                	.insn	2, 0x
    5a9c:	0005                	.insn	2, 0x0005
    5a9e:	0000                	.insn	2, 0x
    5aa0:	0005                	.insn	2, 0x0005
    5aa2:	0000                	.insn	2, 0x
    5aa4:	0005                	.insn	2, 0x0005
    5aa6:	0000                	.insn	2, 0x
    5aa8:	0005                	.insn	2, 0x0005
    5aaa:	0000                	.insn	2, 0x
    5aac:	0005                	.insn	2, 0x0005
    5aae:	0000                	.insn	2, 0x
    5ab0:	0005                	.insn	2, 0x0005
    5ab2:	0000                	.insn	2, 0x
    5ab4:	0005                	.insn	2, 0x0005
    5ab6:	0000                	.insn	2, 0x
    5ab8:	0005                	.insn	2, 0x0005
    5aba:	0000                	.insn	2, 0x
    5abc:	0005                	.insn	2, 0x0005
    5abe:	0000                	.insn	2, 0x
    5ac0:	0005                	.insn	2, 0x0005
    5ac2:	0000                	.insn	2, 0x
    5ac4:	0005                	.insn	2, 0x0005
    5ac6:	0000                	.insn	2, 0x
    5ac8:	0005                	.insn	2, 0x0005
    5aca:	0000                	.insn	2, 0x
    5acc:	0005                	.insn	2, 0x0005
    5ace:	0000                	.insn	2, 0x
    5ad0:	0004                	.insn	2, 0x0004
	...

00005ad4 <font_5x7>:
    5ad4:	513e                	.insn	2, 0x513e
    5ad6:	4549                	.insn	2, 0x4549
    5ad8:	003e                	.insn	2, 0x003e
    5ada:	7f42                	.insn	2, 0x7f42
    5adc:	0040                	.insn	2, 0x0040
    5ade:	6142                	.insn	2, 0x6142
    5ae0:	4951                	.insn	2, 0x4951
    5ae2:	2146                	.insn	2, 0x2146
    5ae4:	4541                	.insn	2, 0x4541
    5ae6:	1418314b          	.insn	4, 0x1418314b
    5aea:	7f12                	.insn	2, 0x7f12
    5aec:	2710                	.insn	2, 0x2710
    5aee:	4545                	.insn	2, 0x4545
    5af0:	3945                	.insn	2, 0x3945
    5af2:	4a3c                	.insn	2, 0x4a3c
    5af4:	4949                	.insn	2, 0x4949
    5af6:	0130                	.insn	2, 0x0130
    5af8:	0971                	.insn	2, 0x0971
    5afa:	0305                	.insn	2, 0x0305
    5afc:	4936                	.insn	2, 0x4936
    5afe:	4949                	.insn	2, 0x4949
    5b00:	0636                	.insn	2, 0x0636
    5b02:	4949                	.insn	2, 0x4949
    5b04:	1e29                	.insn	2, 0x1e29
    5b06:	3600                	.insn	2, 0x3600
    5b08:	0036                	.insn	2, 0x0036
    5b0a:	0000                	.insn	2, 0x
    5b0c:	3656                	.insn	2, 0x3656
    5b0e:	0000                	.insn	2, 0x
    5b10:	0000                	.insn	2, 0x
    5b12:	0000                	.insn	2, 0x
    5b14:	7e00                	.insn	2, 0x7e00
    5b16:	1111                	.insn	2, 0x1111
    5b18:	7e11                	.insn	2, 0x7e11
    5b1a:	497f 4949 3e36 4141 	.insn	18, 0x49497f1c2241417f224141413e364949497f
    5b22:	2241 417f 2241 7f1c 
    5b2a:	4949 
    5b2c:	4149                	.insn	2, 0x4149
    5b2e:	097f 0909 3e01 4941 	.insn	10, 0x7a4949413e010909097f
    5b36:	7a49 
    5b38:	087f 0808 007f 7f41 	.insn	10, 0x00417f41007f0808087f
    5b40:	0041 
    5b42:	4020                	.insn	2, 0x4020
    5b44:	3f41                	.insn	2, 0x3f41
    5b46:	7f01                	.insn	2, 0x7f01
    5b48:	1408                	.insn	2, 0x1408
    5b4a:	4122                	.insn	2, 0x4122
    5b4c:	407f 4040 7f40 0c02 	.insn	18, 0x41413e7f1008047f7f020c027f404040407f
    5b54:	7f02 047f 1008 3e7f 
    5b5c:	4141 
    5b5e:	3e41                	.insn	2, 0x3e41
    5b60:	097f 0909 3e06 5141 	.insn	10, 0x5e2151413e060909097f
    5b68:	5e21 
    5b6a:	097f 2919 4646 4949 	.insn	10, 0x3149494946462919097f
    5b72:	3149 
    5b74:	0101                	.insn	2, 0x0101
    5b76:	017f 3f01 4040 3f40 	.insn	10, 0x201f3f4040403f01017f
    5b7e:	201f 
    5b80:	2040                	.insn	2, 0x2040
    5b82:	3f1f 3840 3f40      	.insn	6, 0x3f4038403f1f
    5b88:	14081463          	bnez	a6,5cd0 <sev_seg_map.0+0x138>
    5b8c:	70080763          	beqz	a6,629a <sev_seg_map.0+0x702>
    5b90:	0708                	.insn	2, 0x0708
    5b92:	5161                	.insn	2, 0x5161
    5b94:	4549                	.insn	2, 0x4549
    5b96:	          	.insn	4, 0x00400043

00005b98 <sev_seg_map.0>:
    5b98:	0040                	.insn	2, 0x0040
    5b9a:	0000                	.insn	2, 0x
    5b9c:	0079                	.insn	2, 0x0079
    5b9e:	0000                	.insn	2, 0x
    5ba0:	0024                	.insn	2, 0x0024
    5ba2:	0000                	.insn	2, 0x
    5ba4:	0030                	.insn	2, 0x0030
    5ba6:	0000                	.insn	2, 0x
    5ba8:	0019                	.insn	2, 0x0019
    5baa:	0000                	.insn	2, 0x
    5bac:	0012                	.insn	2, 0x0012
    5bae:	0000                	.insn	2, 0x
    5bb0:	0002                	.insn	2, 0x0002
    5bb2:	0000                	.insn	2, 0x
    5bb4:	0078                	.insn	2, 0x0078
    5bb6:	0000                	.insn	2, 0x
    5bb8:	0000                	.insn	2, 0x
    5bba:	0000                	.insn	2, 0x
    5bbc:	0010                	.insn	2, 0x0010
	...

Disassembly of section .rodata.str1.4:

00005bc0 <.rodata.str1.4>:
    5bc0:	2020                	.insn	2, 0x2020
    5bc2:	2020                	.insn	2, 0x2020
    5bc4:	0020                	.insn	2, 0x0020
    5bc6:	0000                	.insn	2, 0x
    5bc8:	524f4353          	.insn	4, 0x524f4353
    5bcc:	3a45                	.insn	2, 0x3a45
    5bce:	0000                	.insn	2, 0x
    5bd0:	32315753          	.insn	4, 0x32315753
    5bd4:	4d3a3433          	.insn	4, 0x4d3a3433
    5bd8:	2045564f          	.insn	4, 0x2045564f
    5bdc:	3a305753          	.insn	4, 0x3a305753
    5be0:	4150                	.insn	2, 0x4150
    5be2:	5355                	.insn	2, 0x5355
    5be4:	2045                	.insn	2, 0x2045
    5be6:	3a395753          	.insn	4, 0x3a395753
    5bea:	4552                	.insn	2, 0x4552
    5bec:	00544553          	.insn	4, 0x00544553
    5bf0:	4150                	.insn	2, 0x4150
    5bf2:	5355                	.insn	2, 0x5355
    5bf4:	4445                	.insn	2, 0x4445
    5bf6:	0000                	.insn	2, 0x
    5bf8:	4c46                	.insn	2, 0x4c46
    5bfa:	5049                	.insn	2, 0x5049
    5bfc:	5320                	.insn	2, 0x5320
    5bfe:	54203057          	.insn	4, 0x54203057
    5c02:	4552204f          	.insn	4, 0x4552204f
    5c06:	454d5553          	.insn	4, 0x454d5553
    5c0a:	0000                	.insn	2, 0x
    5c0c:	2020                	.insn	2, 0x2020
    5c0e:	2020                	.insn	2, 0x2020
    5c10:	2020                	.insn	2, 0x2020
    5c12:	2020                	.insn	2, 0x2020
    5c14:	2020                	.insn	2, 0x2020
    5c16:	2020                	.insn	2, 0x2020
    5c18:	2020                	.insn	2, 0x2020
    5c1a:	2020                	.insn	2, 0x2020
    5c1c:	2020                	.insn	2, 0x2020
    5c1e:	0000                	.insn	2, 0x
    5c20:	454d4147          	.insn	4, 0x454d4147
    5c24:	4f20                	.insn	2, 0x4f20
    5c26:	4556                	.insn	2, 0x4556
    5c28:	0052                	.insn	2, 0x0052
    5c2a:	0000                	.insn	2, 0x
    5c2c:	20395753          	.insn	4, 0x20395753
    5c30:	4f54                	.insn	2, 0x4f54
    5c32:	5220                	.insn	2, 0x5220
    5c34:	5345                	.insn	2, 0x5345
    5c36:	4154                	.insn	2, 0x4154
    5c38:	5452                	.insn	2, 0x5452
    5c3a:	0000                	.insn	2, 0x
    5c3c:	5b0a                	.insn	2, 0x5b0a
    5c3e:	5845                	.insn	2, 0x5845
    5c40:	54504543          	.insn	4, 0x54504543
    5c44:	4f49                	.insn	2, 0x4f49
    5c46:	5d4e                	.insn	2, 0x5d4e
    5c48:	4920                	.insn	2, 0x4920
    5c4a:	736e                	.insn	2, 0x736e
    5c4c:	7274                	.insn	2, 0x7274
    5c4e:	6375                	.insn	2, 0x6375
    5c50:	6974                	.insn	2, 0x6974
    5c52:	61206e6f          	jal	t3,c264 <sev_seg_map.0+0x66cc>
    5c56:	6464                	.insn	2, 0x6464
    5c58:	6572                	.insn	2, 0x6572
    5c5a:	6d207373          	csrrci	t1,0x6d2,0
    5c5e:	7369                	.insn	2, 0x7369
    5c60:	6c61                	.insn	2, 0x6c61
    5c62:	6769                	.insn	2, 0x6769
    5c64:	6d6e                	.insn	2, 0x6d6e
    5c66:	6e65                	.insn	2, 0x6e65
    5c68:	2e74                	.insn	2, 0x2e74
    5c6a:	0020                	.insn	2, 0x0020
    5c6c:	5b0a                	.insn	2, 0x5b0a
    5c6e:	5845                	.insn	2, 0x5845
    5c70:	54504543          	.insn	4, 0x54504543
    5c74:	4f49                	.insn	2, 0x4f49
    5c76:	5d4e                	.insn	2, 0x5d4e
    5c78:	4920                	.insn	2, 0x4920
    5c7a:	6c6c                	.insn	2, 0x6c6c
    5c7c:	6765                	.insn	2, 0x6765
    5c7e:	6c61                	.insn	2, 0x6c61
    5c80:	6920                	.insn	2, 0x6920
    5c82:	736e                	.insn	2, 0x736e
    5c84:	7274                	.insn	2, 0x7274
    5c86:	6375                	.insn	2, 0x6375
    5c88:	6974                	.insn	2, 0x6974
    5c8a:	202e6e6f          	jal	t3,ebe8c <sev_seg_map.0+0xe62f4>
    5c8e:	0000                	.insn	2, 0x
    5c90:	5b0a                	.insn	2, 0x5b0a
    5c92:	5845                	.insn	2, 0x5845
    5c94:	54504543          	.insn	4, 0x54504543
    5c98:	4f49                	.insn	2, 0x4f49
    5c9a:	5d4e                	.insn	2, 0x5d4e
    5c9c:	5520                	.insn	2, 0x5520
    5c9e:	6b6e                	.insn	2, 0x6b6e
    5ca0:	6f6e                	.insn	2, 0x6f6e
    5ca2:	65206e77          	.insn	4, 0x65206e77
    5ca6:	7272                	.insn	2, 0x7272
    5ca8:	202e726f          	jal	tp,eceaa <sev_seg_map.0+0xe7312>
    5cac:	0000                	.insn	2, 0x
    5cae:	0000                	.insn	2, 0x
    5cb0:	7845                	.insn	2, 0x7845
    5cb2:	74706563          	bltu	zero,t2,63fc <sev_seg_map.0+0x864>
    5cb6:	6f69                	.insn	2, 0x6f69
    5cb8:	206e                	.insn	2, 0x206e
    5cba:	6441                	.insn	2, 0x6441
    5cbc:	7264                	.insn	2, 0x7264
    5cbe:	7365                	.insn	2, 0x7365
    5cc0:	00203a73          	csrrc	s4,frm,zero

Disassembly of section .comment:

00000000 <.comment>:
   0:	3a434347          	.insn	4, 0x3a434347
   4:	2820                	.insn	2, 0x2820
   6:	2029                	.insn	2, 0x2029
   8:	3331                	.insn	2, 0x3331
   a:	322e                	.insn	2, 0x322e
   c:	302e                	.insn	2, 0x302e
	...

Disassembly of section .riscv.attributes:

00000000 <.riscv.attributes>:
   0:	3641                	.insn	2, 0x3641
   2:	0000                	.insn	2, 0x
   4:	7200                	.insn	2, 0x7200
   6:	7369                	.insn	2, 0x7369
   8:	01007663          	bgeu	zero,a6,14 <_isr_routine+0xc>
   c:	002c                	.insn	2, 0x002c
   e:	0000                	.insn	2, 0x
  10:	1004                	.insn	2, 0x1004
  12:	7205                	.insn	2, 0x7205
  14:	3376                	.insn	2, 0x3376
  16:	6932                	.insn	2, 0x6932
  18:	7032                	.insn	2, 0x7032
  1a:	5f31                	.insn	2, 0x5f31
  1c:	326d                	.insn	2, 0x326d
  1e:	3070                	.insn	2, 0x3070
  20:	7a5f 6369 7273      	.insn	6, 0x727363697a5f
  26:	7032                	.insn	2, 0x7032
  28:	5f30                	.insn	2, 0x5f30
  2a:	6d7a                	.insn	2, 0x6d7a
  2c:	756d                	.insn	2, 0x756d
  2e:	316c                	.insn	2, 0x316c
  30:	3070                	.insn	2, 0x3070
  32:	0800                	.insn	2, 0x0800
  34:	0a01                	.insn	2, 0x0a01
  36:	Address 0x36 is out of bounds.

